(dp0
(S'%%%%%%%\n%     %\n%G    %\n%     %\n%     %\n%. p  %\n%%%%%%%'
p1
S'East'
p2
tp3
F-0.09975
s(S'%%%%%%%\n%     %\n%  p  %\n%     %\n%     %\n%G    %\n%%%%%%%'
p4
S'South'
p5
tp6
F-0.18698233959176663
s(S'%%%%%%%\n%     %\n% G   %\n%     %\n%  p  %\n%.    %\n%%%%%%%'
p7
g2
tp8
F-0.10808651451562501
s(S'%%%%%%%\n%     %\n%  Gp.%\n%     %\n%     %\n%.    %\n%%%%%%%'
p9
S'North'
p10
tp11
F0.0
s(S'%%%%%%%\n%  G  %\n%    p%\n%     %\n%     %\n%.    %\n%%%%%%%'
p12
S'West'
p13
tp14
F-1.3240300903814366
s(S'%%%%%%%\n% pG  %\n%     %\n%     %\n%     %\n%.    %\n%%%%%%%'
p15
g5
tp16
F-0.38588325903663995
s(S'%%%%%%%\n%     %\n%     %\n%     %\n%     %\n%. Gp %\n%%%%%%%'
p17
g10
tp18
F-0.4217954979109497
s(S'%%%%%%%\n%     %\n%     %\n%     %\n%   G %\n%.p   %\n%%%%%%%'
p19
g2
tp20
F-0.2812935685134934
s(S'%%%%%%%\n%     %\n%G    %\n%p    %\n%     %\n%.    %\n%%%%%%%'
p21
g2
tp22
F-0.15029958434375001
s(S'%%%%%%%\n%     %\n%   G %\n%   p %\n%     %\n%.    %\n%%%%%%%'
p23
g10
tp24
F-25.05
s(S'%%%%%%%\n%    G%\n%     %\n% p   %\n%     %\n%.    %\n%%%%%%%'
p25
g13
tp26
F2.7858690546433014
s(S'%%%%%%%\n%     %\n%     %\n% p   %\n% G   %\n%.    %\n%%%%%%%'
p27
g5
tp28
F-25.05
s(S'%%%%%%%\n%     %\n% G   %\n%     %\n%     %\n%.  p %\n%%%%%%%'
p29
g10
tp30
F-0.24556561971692187
s(S'%%%%%%%\n%     %\n%   p %\n%     %\n%G    %\n%.    %\n%%%%%%%'
p31
g13
tp32
F-0.8974837841144215
s(S'%%%%%%%\n%     %\n%     %\n% G   %\n%   p %\n%.    %\n%%%%%%%'
p33
g5
tp34
F-0.19799119720988256
s(S'%%%%%%%\n%     %\n%     %\n%     %\n%Gp   %\n%.    %\n%%%%%%%'
p35
g2
tp36
F0.0
s(S'%%%%%%%\n%     %\n%     %\n%   p %\n% G   %\n%.    %\n%%%%%%%'
p37
g2
tp38
F-0.97377110475675
s(S'%%%%%%%\n%     %\n%     %\n%     %\n%    p%\n%G    %\n%%%%%%%'
p39
g10
tp40
F-0.5497411686698624
s(S'%%%%%%%\n%     %\n%     %\n% pG  %\n%     %\n%.    %\n%%%%%%%'
p41
g13
tp42
F0.2855109484375001
s(S'%%%%%%%\n%     %\n%  p  %\n%  G  %\n%     %\n%.    %\n%%%%%%%'
p43
g2
tp44
F-0.9977663062740288
s(S'%%%%%%%\n%  p  %\n%  G  %\n%     %\n%     %\n%.    %\n%%%%%%%'
p45
g5
tp46
F-25.05
s(S'%%%%%%%\n%     %\n%     %\n% p   %\n%     %\n%G    %\n%%%%%%%'
p47
g2
tp48
F-0.19191187499999998
s(S'%%%%%%%\n%     %\n%  pG %\n%     %\n%     %\n%.    %\n%%%%%%%'
p49
g13
tp50
F-0.354083617418769
s(S'%%%%%%%\n%   G %\n%     %\n%  p  %\n%     %\n%.    %\n%%%%%%%'
p51
g5
tp52
F-0.1383511965271259
s(S'%%%%%%%\n%     %\n%  Gp %\n%     %\n%     %\n%.    %\n%%%%%%%'
p53
g10
tp54
F-1.4311645492080551
s(S'%%%%%%%\n%  p  %\n%     %\n%   G %\n%     %\n%.    %\n%%%%%%%'
p55
g2
tp56
F-0.9536031010730249
s(S'%%%%%%%\n%     %\n%G    %\n%     %\n%   p %\n%.    %\n%%%%%%%'
p57
g2
tp58
F-0.299567334545473
s(S'%%%%%%%\n%     %\n% G   %\n%     %\n%     %\n%.p   %\n%%%%%%%'
p59
g2
tp60
F-0.05
s(S'%%%%%%%\n%     %\n%p    %\n%  G  %\n%     %\n%.    %\n%%%%%%%'
p61
g10
tp62
F-0.2002312921875
s(S'%%%%%%%\n%     %\n%   p %\n% G   %\n%     %\n%.    %\n%%%%%%%'
p63
g2
tp64
F-1.4635132944906073
s(S'%%%%%%%\n%     %\n%     %\n%  p  %\n%    G%\n%.    %\n%%%%%%%'
p65
g5
tp66
F-0.17560018769476257
s(S'%%%%%%%\n%     %\n%     %\n% p  G%\n%     %\n%.    %\n%%%%%%%'
p67
g13
tp68
F-0.09975
s(S'%%%%%%%\n%     %\n%     %\n%    G%\n%    p%\n%.    %\n%%%%%%%'
p69
g5
tp70
F-0.8884269712649125
s(S'%%%%%%%\n%G  p %\n%    .%\n%     %\n%     %\n%.    %\n%%%%%%%'
p71
g5
tp72
F0.0
s(S'%%%%%%%\n%     %\n%   G %\n% p   %\n%     %\n%.    %\n%%%%%%%'
p73
g13
tp74
F29.676636882342002
s(S'%%%%%%%\n%     %\n%G    %\n%     %\n%   p %\n%.    %\n%%%%%%%'
p75
g5
tp76
F-0.1048415206924766
s(S'%%%%%%%\n%     %\n%  pG %\n%     %\n%     %\n%.    %\n%%%%%%%'
p77
g5
tp78
F-0.4283930427834945
s(S'%%%%%%%\n%     %\n%     %\n%    p%\n%     %\n%.  G %\n%%%%%%%'
p79
g13
tp80
F-0.4643582364850681
s(S'%%%%%%%\n% G   %\n%   p %\n%     %\n%     %\n%.    %\n%%%%%%%'
p81
g5
tp82
F-0.9964911947092592
s(S'%%%%%%%\n%G    %\n%     %\n%   p %\n%     %\n%.    %\n%%%%%%%'
p83
g13
tp84
F-0.32448192496282907
s(S'%%%%%%%\n%     %\n%    p%\n%    G%\n%     %\n%.    %\n%%%%%%%'
p85
g13
tp86
F-0.7374941846682137
s(S'%%%%%%%\n%     %\n%     %\n% p   %\n%     %\n%G    %\n%%%%%%%'
p87
g10
tp88
F-0.15118062499999999
s(S'%%%%%%%\n%   p %\n%     %\n%    G%\n%     %\n%.    %\n%%%%%%%'
p89
g13
tp90
F-0.9590699297393872
s(S'%%%%%%%\n%     %\n%    G%\n%     %\n%     %\n%.   p%\n%%%%%%%'
p91
g10
tp92
F-0.5637178481753246
s(S'%%%%%%%\n% G   %\n% p   %\n%     %\n%     %\n%.    %\n%%%%%%%'
p93
g2
tp94
F-0.27570115051906946
s(S'%%%%%%%\n%     %\n%     %\n%     %\n%  G  %\n%. p  %\n%%%%%%%'
p95
g2
tp96
F-0.29083998727968746
s(S'%%%%%%%\n%     %\n%  Gp %\n%     %\n%     %\n%.    %\n%%%%%%%'
p97
g13
tp98
F-25.05
s(S'%%%%%%%\n%     %\n%     %\n% G   %\n% p   %\n%.    %\n%%%%%%%'
p99
g10
tp100
F-25.05
s(S'%%%%%%%\n%p    %\n%     %\n%     %\n%    G%\n%.    %\n%%%%%%%'
p101
g2
tp102
F-0.45617126643950195
s(S'%%%%%%%\n%     %\n%     %\n%     %\n%   p %\n%.  G %\n%%%%%%%'
p103
g2
tp104
F-0.4779136544410885
s(S'%%%%%%%\n%     %\n%     %\n%   p %\n% G   %\n%.    %\n%%%%%%%'
p105
g10
tp106
F-0.970703212711014
s(S'%%%%%%%\n%     %\n%     %\n%     %\n%p    %\n%.   G%\n%%%%%%%'
p107
g2
tp108
F0.0
s(S'%%%%%%%\n%     %\n%     %\n%    p%\n%  G  %\n%.    %\n%%%%%%%'
p109
g10
tp110
F-0.9549852016998218
s(S'%%%%%%%\n%G    %\n%    p%\n%     %\n%     %\n%.    %\n%%%%%%%'
p111
g5
tp112
F-1.7447230600647057
s(S'%%%%%%%\n%     %\n% G   %\n%     %\n%     %\n%.  p %\n%%%%%%%'
p113
g2
tp114
F-0.24543741985156253
s(S'%%%%%%%\n%     %\n%     %\n%  p  %\n%     %\n%.  G %\n%%%%%%%'
p115
g10
tp116
F-0.3338382852880804
s(S'%%%%%%%\n% pG  %\n%     %\n%     %\n%     %\n%.    %\n%%%%%%%'
p117
g13
tp118
F-0.442116394677212
s(S'%%%%%%%\n% p   %\n%     %\n%  G  %\n%     %\n%.    %\n%%%%%%%'
p119
g13
tp120
F-0.42825102406554083
s(S'%%%%%%%\n%     %\n%     %\n%  p  %\n%     %\n%.G   %\n%%%%%%%'
p121
g10
tp122
F-0.4246825143719886
s(S'%%%%%%%\n%     %\n%     %\n%     %\n% p   %\n%.  G %\n%%%%%%%'
p123
g10
tp124
F-0.0975
s(S'%%%%%%%\n%G    %\n%  p  %\n%     %\n%     %\n%.    %\n%%%%%%%'
p125
g10
tp126
F-0.5451378750447754
s(S'%%%%%%%\n%     %\n%  G  %\n%     %\n% p   %\n%.    %\n%%%%%%%'
p127
g13
tp128
F0.0
s(S'%%%%%%%\n%     %\n%p    %\n%    G%\n%     %\n%.    %\n%%%%%%%'
p129
g5
tp130
F-0.2688176454173789
s(S'%%%%%%%\n%     %\n% G   %\n%     %\n%  p  %\n%.    %\n%%%%%%%'
p131
g10
tp132
F-0.23325369653596484
s(S'%%%%%%%\n%     %\n%G    %\n%     %\n%     %\n%. p  %\n%%%%%%%'
p133
g10
tp134
F0.0
s(S'%%%%%%%\n%     %\n%     %\n%p    %\n%G    %\n%.    %\n%%%%%%%'
p135
g5
tp136
F-25.05
s(S'%%%%%%%\n%     %\n%     %\n%  p  %\n%  G  %\n%.    %\n%%%%%%%'
p137
g2
tp138
F-0.4091105462082012
s(S'%%%%%%%\n%     %\n%   G %\n%   p %\n%     %\n%.    %\n%%%%%%%'
p139
g5
tp140
F-0.7131483127845465
s(S'%%%%%%%\n%   G %\n% p   %\n%     %\n%     %\n%.    %\n%%%%%%%'
p141
g2
tp142
F-0.10743150216032597
s(S'%%%%%%%\n%     %\n% pG  %\n%     %\n%     %\n%.    %\n%%%%%%%'
p143
g13
tp144
F-0.4297709558062956
s(S'%%%%%%%\n%     %\n%     %\n%     %\n%pG   %\n%.    %\n%%%%%%%'
p145
g2
tp146
F0.0
s(S'%%%%%%%\n%     %\n%     %\n%  G  %\n%    p%\n%.    %\n%%%%%%%'
p147
g5
tp148
F-0.7564847576001145
s(S'%%%%%%%\n%   G %\n%     %\n%     %\n%   p %\n%.    %\n%%%%%%%'
p149
g13
tp150
F-0.11156290064419158
s(S'%%%%%%%\n%    G%\n%  p  %\n%     %\n%     %\n%.    %\n%%%%%%%'
p151
g5
tp152
F-0.27774716668365507
s(S'%%%%%%%\n%  p  %\n%     %\n%     %\n%    G%\n%.    %\n%%%%%%%'
p153
g2
tp154
F-0.6139211791155108
s(S'%%%%%%%\n%     %\n% G   %\n%     %\n%  p  %\n%.    %\n%%%%%%%'
p155
g5
tp156
F69.58179003168593
s(S'%%%%%%%\n%     %\n%   G %\n%     %\n%    p%\n%.    %\n%%%%%%%'
p157
g13
tp158
F-0.7586210750253463
s(S'%%%%%%%\n%   G %\n% p   %\n%     %\n%     %\n%.    %\n%%%%%%%'
p159
g5
tp160
F-0.18549375
s(S'%%%%%%%\n%  p  %\n%     %\n%     %\n%G    %\n%.    %\n%%%%%%%'
p161
g13
tp162
F-0.7604791835988497
s(S'%%%%%%%\n%     %\n%     %\n%     %\n%p    %\n%.   G%\n%%%%%%%'
p163
g10
tp164
F0.0
s(S'%%%%%%%\n%    p%\n%     %\n% G   %\n%     %\n%.    %\n%%%%%%%'
p165
g5
tp166
F-1.7715164139135229
s(S'%%%%%%%\n%     %\n%     %\n%Gp   %\n%     %\n%.    %\n%%%%%%%'
p167
g5
tp168
F-0.08563003437499996
s(S'%%%%%%%\n%     %\n%     %\n%p    %\n%     %\n%.G   %\n%%%%%%%'
p169
g2
tp170
F-0.05
s(S'%%%%%%%\n%     %\n%     %\n%p    %\n%     %\n%.  G %\n%%%%%%%'
p171
g10
tp172
F-0.09975
s(S'%%%%%%%\n%     %\n%     %\n%     %\n%     %\n%.Gp  %\n%%%%%%%'
p173
g10
tp174
F2.757196752977307
s(S'%%%%%%%\n%    G%\n%    p%\n%     %\n%     %\n%.    %\n%%%%%%%'
p175
g13
tp176
F-0.7580370290294036
s(S'%%%%%%%\n% p   %\n%     %\n%     %\n%     %\n%.   G%\n%%%%%%%'
p177
g5
tp178
F-0.37307011617265917
s(S'%%%%%%%\n%     %\n%    G%\n%     %\n% p   %\n%.    %\n%%%%%%%'
p179
g2
tp180
F-0.13038819210234376
s(S'%%%%%%%\n%     %\n% Gp  %\n%     %\n%     %\n%.    %\n%%%%%%%'
p181
g10
tp182
F-0.9424505858446105
s(S'%%%%%%%\n%     %\n%G    %\n%  p  %\n%     %\n%.    %\n%%%%%%%'
p183
g10
tp184
F-0.4334910228394031
s(S'%%%%%%%\n%     %\n%     %\n%   G %\n% p   %\n%.    %\n%%%%%%%'
p185
g10
tp186
F0.170471105627293
s(S'%%%%%%%\n%     %\n% p   %\n%     %\n%  G  %\n%.    %\n%%%%%%%'
p187
g2
tp188
F-0.5557356324002226
s(S'%%%%%%%\n%    G%\n%     %\n% p   %\n%     %\n%.    %\n%%%%%%%'
p189
g5
tp190
F0.5352338182265628
s(S'%%%%%%%\n%   p %\n%     %\n%    G%\n%     %\n%.    %\n%%%%%%%'
p191
g2
tp192
F-1.0695702494864356
s(S'%%%%%%%\n%G    %\n%     %\n%     %\n%     %\n%.  p %\n%%%%%%%'
p193
g13
tp194
F24.785153464189026
s(S'%%%%%%%\n%     %\n%     %\n%G    %\n%p    %\n%.    %\n%%%%%%%'
p195
g5
tp196
F348.219625
s(S'%%%%%%%\n%     %\n% p   %\n%     %\n%     %\n%.G   %\n%%%%%%%'
p197
g5
tp198
F1.1967002452445854
s(S'%%%%%%%\n% p   %\n%     %\n%     %\n% G   %\n%.    %\n%%%%%%%'
p199
g2
tp200
F-0.6610966307711864
s(S'%%%%%%%\n%     %\n%     %\n%     %\n%    G%\n%. p  %\n%%%%%%%'
p201
g10
tp202
F-0.06325002185964325
s(S'%%%%%%%\n%     %\n%  p  %\n%     %\n%     %\n%. G  %\n%%%%%%%'
p203
g13
tp204
F-0.39574249374794734
s(S'%%%%%%%\n%    p%\n%     %\n%     %\n%    G%\n%.    %\n%%%%%%%'
p205
g13
tp206
F-0.9428013548446541
s(S'%%%%%%%\n%     %\n% G   %\n% p   %\n%     %\n%.    %\n%%%%%%%'
p207
g13
tp208
F0.7218459635156252
s(S'%%%%%%%\n%     %\n%     %\n% G   %\n% p   %\n%.    %\n%%%%%%%'
p209
g2
tp210
F-0.05
s(S'%%%%%%%\n% G   %\n%     %\n%     %\n%     %\n%.   p%\n%%%%%%%'
p211
g13
tp212
F1.1747358870162776
s(S'%%%%%%%\n%     %\n%   p %\n%     %\n%     %\n%.  G %\n%%%%%%%'
p213
g2
tp214
F-0.7656179270343381
s(S'%%%%%%%\n%     %\n% G  p%\n%     %\n%     %\n%.    %\n%%%%%%%'
p215
g10
tp216
F-2.1468943470632693
s(S'%%%%%%%\n%     %\n%   p %\n%     %\n%G    %\n%.    %\n%%%%%%%'
p217
g10
tp218
F-1.1281362643265347
s(S'%%%%%%%\n%     %\n%     %\n%p    %\n%     %\n%.  G %\n%%%%%%%'
p219
g2
tp220
F0.0
s(S'%%%%%%%\n%    G%\n%     %\n%     %\n%     %\n%.p   %\n%%%%%%%'
p221
g2
tp222
F2.5816634609780866
s(S'%%%%%%%\n% G   %\n%     %\n%p    %\n%     %\n%.    %\n%%%%%%%'
p223
g5
tp224
F37.57204140625
s(S'%%%%%%%\n%     %\n%     %\n%G    %\n%  p  %\n%.    %\n%%%%%%%'
p225
g13
tp226
F1.2304034394348344
s(S'%%%%%%%\n% p   %\n% G   %\n%     %\n%     %\n%.    %\n%%%%%%%'
p227
g2
tp228
F-0.6131926101144791
s(S'%%%%%%%\n%    p%\n%     %\n%     %\n%     %\n%.G   %\n%%%%%%%'
p229
g13
tp230
F-1.1181833631376752
s(S'%%%%%%%\n%     %\n%    G%\n%     %\n%   p %\n%.    %\n%%%%%%%'
p231
g10
tp232
F-0.4698213148466174
s(S'%%%%%%%\n%     %\n%     %\n% Gp  %\n%     %\n%.    %\n%%%%%%%'
p233
g2
tp234
F-0.44469533318971044
s(S'%%%%%%%\n%  G  %\n%     %\n%     %\n%  p  %\n%.    %\n%%%%%%%'
p235
g5
tp236
F1.6125203546874995
s(S'%%%%%%%\n%G    %\n%     %\n%     %\n%  p  %\n%.    %\n%%%%%%%'
p237
g2
tp238
F-0.05225
s(S'%%%%%%%\n%     %\n%p    %\n%     %\n%   G %\n%.    %\n%%%%%%%'
p239
g2
tp240
F-0.22518234471048112
s(S'%%%%%%%\n%     %\n%p    %\n%     %\n%   G %\n%.    %\n%%%%%%%'
p241
g10
tp242
F-0.4368404525078503
s(S'%%%%%%%\n%     %\n% G  p%\n%     %\n%     %\n%.    %\n%%%%%%%'
p243
g13
tp244
F-1.830878019406992
s(S'%%%%%%%\n%G    %\n%     %\n%     %\n%  p  %\n%.    %\n%%%%%%%'
p245
g10
tp246
F-0.0975
s(S'%%%%%%%\n%     %\n%     %\n%    G%\n%     %\n%.p   %\n%%%%%%%'
p247
g13
tp248
F484.8224999999999
s(S'%%%%%%%\n%     %\n%     %\n% Gp  %\n%     %\n%.    %\n%%%%%%%'
p249
g10
tp250
F-0.5360016627102893
s(S'%%%%%%%\n%     %\n%     %\n%     %\n%     %\n%Gp   %\n%%%%%%%'
p251
g2
tp252
F-0.05
s(S'%%%%%%%\n%     %\n% G   %\n% p   %\n%     %\n%.    %\n%%%%%%%'
p253
g10
tp254
F-25.05
s(S'%%%%%%%\n%     %\n%     %\n%     %\n%   G %\n%.p   %\n%%%%%%%'
p255
g13
tp256
F187.43925000000002
s(S'%%%%%%%\n%     %\n%p    %\n%     %\n%     %\n%. G  %\n%%%%%%%'
p257
g10
tp258
F-0.3632228544070313
s(S'%%%%%%%\n%     %\n%p    %\n%     %\n%     %\n%. G  %\n%%%%%%%'
p259
g5
tp260
F4.706895307898058
s(S'%%%%%%%\n%     %\n%   G %\n%     %\n%  p  %\n%.    %\n%%%%%%%'
p261
g5
tp262
F2.7980520880851367
s(S'%%%%%%%\n%     %\n% pG  %\n%     %\n%     %\n%.    %\n%%%%%%%'
p263
g2
tp264
F-25.05
s(S'%%%%%%%\n%     %\n%     %\n%     %\n%    p%\n%.   G%\n%%%%%%%'
p265
g10
tp266
F-0.4954692035401852
s(S'%%%%%%%\n%     %\n%  G  %\n%    p%\n%     %\n%.    %\n%%%%%%%'
p267
g13
tp268
F-0.923583035280323
s(S'%%%%%%%\n%     %\n%   p %\n%     %\n%G    %\n%.    %\n%%%%%%%'
p269
g2
tp270
F-1.4539312889938458
s(S'%%%%%%%\n%     %\n%     %\n%     %\n% Gp  %\n%.    %\n%%%%%%%'
p271
g2
tp272
F-0.4175126463126179
s(S'%%%%%%%\n%     %\n%   p %\n%     %\n%     %\n%.  G %\n%%%%%%%'
p273
g10
tp274
F-0.6028558657108981
s(S'%%%%%%%\n%  G  %\n%     %\n%     %\n%  p  %\n%.    %\n%%%%%%%'
p275
g10
tp276
F-0.30355452517699655
s(S'%%%%%%%\n%     %\n%    G%\n%  p  %\n%     %\n%.    %\n%%%%%%%'
p277
g13
tp278
F0.276951609958625
s(S'%%%%%%%\n%     %\n%     %\n% pG  %\n%     %\n%.    %\n%%%%%%%'
p279
g5
tp280
F111.3221369216054
s(S'%%%%%%%\n%   G %\n%     %\n%  p  %\n%     %\n%.    %\n%%%%%%%'
p281
g13
tp282
F0.9833642486013133
s(S'%%%%%%%\n%     %\n%     %\n%G    %\n%     %\n%.  p %\n%%%%%%%'
p283
g10
tp284
F-0.3507115389311205
s(S'%%%%%%%\n%     %\n%     %\n%     %\n%     %\n%.Gp  %\n%%%%%%%'
p285
g13
tp286
F-25.05
s(S'%%%%%%%\n%     %\n%     %\n%  Gp %\n%     %\n%.    %\n%%%%%%%'
p287
g13
tp288
F-25.05
s(S'%%%%%%%\n%  G  %\n%     %\n%     %\n%  p  %\n%.    %\n%%%%%%%'
p289
g13
tp290
F6.262907860983228
s(S'%%%%%%%\n%  pG %\n%     %\n%     %\n%     %\n%.    %\n%%%%%%%'
p291
g2
tp292
F-25.05
s(S'%%%%%%%\n%     %\n%     %\n% p   %\n%     %\n%. G  %\n%%%%%%%'
p293
g13
tp294
F8.488112726479406
s(S'%%%%%%%\n%   G %\n%     %\n%p    %\n%     %\n%.    %\n%%%%%%%'
p295
g10
tp296
F-0.0975
s(S'%%%%%%%\n% p  G%\n%     %\n%     %\n%     %\n%.    %\n%%%%%%%'
p297
g2
tp298
F-0.4296547651783608
s(S'%%%%%%%\n%     %\n%     %\n%    G%\n%     %\n%.  p %\n%%%%%%%'
p299
g10
tp300
F-0.43618704037370715
s(S'%%%%%%%\n%     %\n%     %\n% p   %\n%     %\n%G    %\n%%%%%%%'
p301
g13
tp302
F-0.05238187499999999
s(S'%%%%%%%\n%     %\n% p   %\n%     %\n%  G  %\n%.    %\n%%%%%%%'
p303
g10
tp304
F-0.44795140882703455
s(S'%%%%%%%\n%     %\n%G    %\n%  p  %\n%     %\n%.    %\n%%%%%%%'
p305
g2
tp306
F-0.4945679373405789
s(S'%%%%%%%\n%     %\n% Gp  %\n%     %\n%     %\n%.    %\n%%%%%%%'
p307
g2
tp308
F-0.7971212172971305
s(S'%%%%%%%\n%     %\n%     %\n%    p%\n%     %\n%.  G %\n%%%%%%%'
p309
g10
tp310
F-0.7153295117335735
s(S'%%%%%%%\n%     %\n%    G%\n%     %\n% p   %\n%.    %\n%%%%%%%'
p311
g10
tp312
F-0.039348891218749994
s(S'%%%%%%%\n%     %\n%     %\n% G   %\n%     %\n%. p  %\n%%%%%%%'
p313
g2
tp314
F-0.0975
s(S'%%%%%%%\n%  G  %\n%  p  %\n%     %\n%     %\n%.    %\n%%%%%%%'
p315
g5
tp316
F0.3073036146348949
s(S'%%%%%%%\n%     %\n%p    %\n%G    %\n%     %\n%.    %\n%%%%%%%'
p317
g2
tp318
F-0.32516460826687854
s(S'%%%%%%%\n%     %\n%   G %\n% p   %\n%     %\n%.    %\n%%%%%%%'
p319
g10
tp320
F-0.05225
s(S'%%%%%%%\n%     %\n%     %\n%G    %\n%p    %\n%.    %\n%%%%%%%'
p321
g10
tp322
F-25.05
s(S'%%%%%%%\n% p   %\n%     %\n%     %\n%     %\n%.   G%\n%%%%%%%'
p323
g13
tp324
F-0.405216045126566
s(S'%%%%%%%\n%  p  %\n%     %\n% G   %\n%     %\n%.    %\n%%%%%%%'
p325
g13
tp326
F-0.8847752560151093
s(S'%%%%%%%\n%     %\n%  G  %\n%     %\n% p   %\n%.    %\n%%%%%%%'
p327
g2
tp328
F-0.05
s(S'%%%%%%%\n%     %\n%  p  %\n%     %\n%     %\n%G    %\n%%%%%%%'
p329
g2
tp330
F-0.4320351235323614
s(S'%%%%%%%\n%    G%\n%p    %\n%     %\n%     %\n%.    %\n%%%%%%%'
p331
g5
tp332
F2.757420733445902
s(S'%%%%%%%\n%   p %\n%     %\n%G    %\n%     %\n%.    %\n%%%%%%%'
p333
g5
tp334
F-0.9298375621342245
s(S'%%%%%%%\n%     %\n%     %\n%pG   %\n%     %\n%.    %\n%%%%%%%'
p335
g5
tp336
F100.34682897565821
s(S'%%%%%%%\n%     %\n%     %\n%  pG %\n%     %\n%.    %\n%%%%%%%'
p337
g5
tp338
F-0.32227445970843216
s(S'%%%%%%%\n%     %\n%     %\n%  G  %\n%     %\n%.  p %\n%%%%%%%'
p339
g10
tp340
F-0.21782977883078067
s(S'%%%%%%%\n%  G  %\n%     %\n%     %\n%     %\n%.  p %\n%%%%%%%'
p341
g13
tp342
F18.310002336092673
s(S'%%%%%%%\n%     %\n%     %\n%  G  %\n%p    %\n%.    %\n%%%%%%%'
p343
g10
tp344
F1.2892171896367193
s(S'%%%%%%%\n%     %\n%     %\n% pG  %\n%     %\n%.    %\n%%%%%%%'
p345
g2
tp346
F-25.05
s(S'%%%%%%%\n%     %\n% G   %\n%     %\n%  p  %\n%.    %\n%%%%%%%'
p347
g13
tp348
F0.05259596875000008
s(S'%%%%%%%\n%     %\n%  p  %\n%     %\n%     %\n%.   G%\n%%%%%%%'
p349
g13
tp350
F-0.3857492377369022
s(S'%%%%%%%\n%    G%\n%     %\n%     %\n%p    %\n%.    %\n%%%%%%%'
p351
g5
tp352
F0.0
s(S'%%%%%%%\n%   G %\n% p   %\n%     %\n%     %\n%.    %\n%%%%%%%'
p353
g10
tp354
F-0.34468790736536675
s(S'%%%%%%%\n%    G%\n%     %\n% p   %\n%     %\n%.    %\n%%%%%%%'
p355
g2
tp356
F-0.28099031669882435
s(S'%%%%%%%\n%     %\n%     %\n%p    %\n%     %\n%.G   %\n%%%%%%%'
p357
g5
tp358
F206.6485729604664
s(S'%%%%%%%\n%     %\n%     %\n%     %\n%   p %\n%.  G %\n%%%%%%%'
p359
g13
tp360
F6.3929565256890655
s(S'%%%%%%%\n%   Gp%\n%     %\n%     %\n%     %\n%.    %\n%%%%%%%'
p361
g13
tp362
F-25.05
s(S'%%%%%%%\n%     %\n%     %\n%   G %\n%   p %\n%.    %\n%%%%%%%'
p363
g2
tp364
F-0.7847041309082502
s(S'%%%%%%%\n%  G  %\n%     %\n% p   %\n%     %\n%.    %\n%%%%%%%'
p365
g13
tp366
F2.6999386585229725
s(S'%%%%%%%\n%G    %\n%  p  %\n%     %\n%     %\n%.    %\n%%%%%%%'
p367
g2
tp368
F-0.49246250870874403
s(S'%%%%%%%\n%     %\n%     %\n%  p  %\n%     %\n%.G   %\n%%%%%%%'
p369
g2
tp370
F-0.4436978619133709
s(S'%%%%%%%\n%   pG%\n%     %\n%     %\n%     %\n%.    %\n%%%%%%%'
p371
g5
tp372
F-0.6854889945198692
s(S'%%%%%%%\n%     %\n%     %\n% G   %\n% p   %\n%.    %\n%%%%%%%'
p373
g13
tp374
F179.2733057426352
s(S'%%%%%%%\n%     %\n%     %\n%  p  %\n%     %\n%.  G %\n%%%%%%%'
p375
g2
tp376
F-0.18549375
s(S'%%%%%%%\n% p   %\n%   G %\n%     %\n%     %\n%.    %\n%%%%%%%'
p377
g13
tp378
F-0.6172024336615524
s(S'%%%%%%%\n%    p%\n%     %\n%     %\n%G    %\n%.    %\n%%%%%%%'
p379
g5
tp380
F-1.486629297387007
s(S'%%%%%%%\n%     %\n% p   %\n%     %\n%G    %\n%.    %\n%%%%%%%'
p381
g5
tp382
F0.5987961610704721
s(S'%%%%%%%\n%     %\n%     %\n%     %\n%    p%\n%. G  %\n%%%%%%%'
p383
g5
tp384
F-0.7512976337444653
s(S'%%%%%%%\n%     %\n%     %\n%     %\n%   Gp%\n%.    %\n%%%%%%%'
p385
g5
tp386
F-1.009223430201179
s(S'%%%%%%%\n%     %\n%p    %\n%    G%\n%     %\n%.    %\n%%%%%%%'
p387
g10
tp388
F-0.46030141934872704
s(S'%%%%%%%\n%G    %\n%  p  %\n%     %\n%     %\n%.    %\n%%%%%%%'
p389
g5
tp390
F-0.18448874749003008
s(S'%%%%%%%\n%     %\n%     %\n%     %\n%   p %\n%.  G %\n%%%%%%%'
p391
g5
tp392
F-25.05
s(S'%%%%%%%\n%   p %\n%     %\n%     %\n% G   %\n%.    %\n%%%%%%%'
p393
g2
tp394
F-1.4192564907513252
s(S'%%%%%%%\n%     %\n%     %\n%     %\n%   p %\n%.  G %\n%%%%%%%'
p395
g10
tp396
F-0.3794830768622123
s(S'%%%%%%%\n%  G  %\n%     %\n%     %\n%    p%\n%.    %\n%%%%%%%'
p397
g5
tp398
F-0.5301368205310858
s(S'%%%%%%%\n%     %\n% p   %\n%     %\n%  G  %\n%.    %\n%%%%%%%'
p399
g5
tp400
F3.128234757897806
s(S'%%%%%%%\n%  p  %\n%    G%\n%     %\n%     %\n%.    %\n%%%%%%%'
p401
g5
tp402
F-0.4493946045734615
s(S'%%%%%%%\n%   G %\n% p   %\n%     %\n%     %\n%.    %\n%%%%%%%'
p403
g13
tp404
F0.538934174740581
s(S'%%%%%%%\n%     %\n%     %\n%  Gp %\n%     %\n%.    %\n%%%%%%%'
p405
g2
tp406
F-0.9354490936111454
s(S'%%%%%%%\n%     %\n% G   %\n%     %\n%     %\n%.p   %\n%%%%%%%'
p407
g13
tp408
F823.3075000000005
s(S'%%%%%%%\n%G    %\n%    p%\n%     %\n%     %\n%.    %\n%%%%%%%'
p409
g10
tp410
F-2.146122900589904
s(S'%%%%%%%\n%     %\n%     %\n%p    %\n%G    %\n%.    %\n%%%%%%%'
p411
g2
tp412
F0.38496093342963994
s(S'%%%%%%%\n% G   %\n% p   %\n%     %\n%     %\n%.    %\n%%%%%%%'
p413
g10
tp414
F-25.05
s(S'%%%%%%%\n%     %\n%   p %\n% G   %\n%     %\n%.    %\n%%%%%%%'
p415
g13
tp416
F-0.9828871942063473
s(S'%%%%%%%\n%     %\n%     %\n%     %\n%  p  %\n%. G  %\n%%%%%%%'
p417
g10
tp418
F-0.10359721875
s(S'%%%%%%%\n%     %\n%Gp   %\n%     %\n%     %\n%.    %\n%%%%%%%'
p419
g13
tp420
F-25.05
s(S'%%%%%%%\n%    p%\n%G    %\n%     %\n%     %\n%.    %\n%%%%%%%'
p421
g5
tp422
F-1.2698080082537022
s(S'%%%%%%%\n%    G%\n%     %\n%     %\n%     %\n%.  p %\n%%%%%%%'
p423
g2
tp424
F-0.10815623906249999
s(S'%%%%%%%\n%     %\n%     %\n%     %\n%p  G %\n%.    %\n%%%%%%%'
p425
g5
tp426
F483.5499999999999
s(S'%%%%%%%\n%     %\n%  G  %\n%    p%\n%     %\n%.    %\n%%%%%%%'
p427
g10
tp428
F-1.498053929982026
s(S'%%%%%%%\n%     %\n%     %\n%     %\n%     %\n%.  Gp%\n%%%%%%%'
p429
g13
tp430
F-25.05
s(S'%%%%%%%\n%     %\n%     %\n% p   %\n%   G %\n%.    %\n%%%%%%%'
p431
g10
tp432
F-0.3200878230662557
s(S'%%%%%%%\n%     %\n%     %\n%Gp   %\n%     %\n%.    %\n%%%%%%%'
p433
g13
tp434
F-25.05
s(S'%%%%%%%\n%  p  %\n%     %\n%     %\n%G    %\n%.    %\n%%%%%%%'
p435
g2
tp436
F-0.9615781267460213
s(S'%%%%%%%\n%     %\n% p   %\n%     %\n%     %\n%.  G %\n%%%%%%%'
p437
g10
tp438
F-0.42507853811824703
s(S'%%%%%%%\n%     %\n%    p%\n%  G  %\n%     %\n%.    %\n%%%%%%%'
p439
g5
tp440
F-1.0602723738167839
s(S'%%%%%%%\n%     %\n%     %\n%  G  %\n%     %\n%.  p %\n%%%%%%%'
p441
g13
tp442
F35.09620218086732
s(S'%%%%%%%\n%     %\n%     %\n%   G %\n%     %\n%. p  %\n%%%%%%%'
p443
g13
tp444
F99.68839790242004
s(S'%%%%%%%\n%     %\n%     %\n% p   %\n%   G %\n%.    %\n%%%%%%%'
p445
g2
tp446
F-0.3593531914468175
s(S'%%%%%%%\n%     %\n%     %\n%p    %\n%     %\n%.G   %\n%%%%%%%'
p447
g10
tp448
F-0.142221231875
s(S'%%%%%%%\n%     %\n%     %\n% p  G%\n%     %\n%.    %\n%%%%%%%'
p449
g5
tp450
F18.64107207072948
s(S'%%%%%%%\n%     %\n%p    %\n%  G  %\n%     %\n%.    %\n%%%%%%%'
p451
g2
tp452
F-0.19602377738280807
s(S'%%%%%%%\n%     %\n% G   %\n%     %\n%     %\n%.p   %\n%%%%%%%'
p453
g10
tp454
F-0.05
s(S'%%%%%%%\n%     %\n%G    %\n%     %\n%   p %\n%.    %\n%%%%%%%'
p455
g10
tp456
F-0.5577785826655027
s(S'%%%%%%%\n%     %\n%  Gp %\n%     %\n%     %\n%.    %\n%%%%%%%'
p457
g2
tp458
F-1.515899237447964
s(S'%%%%%%%\n%     %\n%p    %\n%    G%\n%     %\n%.    %\n%%%%%%%'
p459
g2
tp460
F-0.4062987051589597
s(S'%%%%%%%\n%G    %\n%    p%\n%     %\n%     %\n%.    %\n%%%%%%%'
p461
g13
tp462
F-1.602001739992153
s(S'%%%%%%%\n% p   %\n%     %\n%    G%\n%     %\n%.    %\n%%%%%%%'
p463
g13
tp464
F-0.385834146158489
s(S'%%%%%%%\n%     %\n%     %\n%     %\n% p   %\n%.G   %\n%%%%%%%'
p465
g5
tp466
F-25.05
s(S'%%%%%%%\n%     %\n%   p %\n% G   %\n%     %\n%.    %\n%%%%%%%'
p467
g10
tp468
F-1.4261625073976356
s(S'%%%%%%%\n%  Gp %\n%     %\n%     %\n%     %\n%.    %\n%%%%%%%'
p469
g13
tp470
F-25.05
s(S'%%%%%%%\n%     %\n%     %\n%  G  %\n%  p  %\n%.    %\n%%%%%%%'
p471
g5
tp472
F0.1555120106309979
s(S'%%%%%%%\n%     %\n%     %\n%   G %\n%     %\n%.   p%\n%%%%%%%'
p473
g13
tp474
F1.0294332885102715
s(S'%%%%%%%\n%     %\n%   G %\n%   p %\n%     %\n%.    %\n%%%%%%%'
p475
g2
tp476
F-0.8029012569953644
s(S'%%%%%%%\n%   p %\n%     %\n%  G  %\n%     %\n%.    %\n%%%%%%%'
p477
g2
tp478
F-1.4927963272613076
s(S'%%%%%%%\n%     %\n%    p%\n%G    %\n%     %\n%.    %\n%%%%%%%'
p479
g5
tp480
F-1.6804580495090304
s(S'%%%%%%%\n%     %\n%     %\n%    p%\n%  G  %\n%.    %\n%%%%%%%'
p481
g13
tp482
F-0.7419973239759089
s(S'%%%%%%%\n%     %\n%  Gp %\n%     %\n%     %\n%.    %\n%%%%%%%'
p483
g5
tp484
F-1.048027812529491
s(S'%%%%%%%\n% pG  %\n%     %\n%     %\n%     %\n%.    %\n%%%%%%%'
p485
g2
tp486
F-25.05
s(S'%%%%%%%\n%     %\n% G  p%\n%     %\n%     %\n%.    %\n%%%%%%%'
p487
g5
tp488
F-1.8031204141087578
s(S'%%%%%%%\n%     %\n%     %\n%     %\n%Gp   %\n%.    %\n%%%%%%%'
p489
g10
tp490
F-0.0544836875
s(S'%%%%%%%\n%     %\n%G    %\n%    p%\n%     %\n%.    %\n%%%%%%%'
p491
g5
tp492
F-0.7628462701108694
s(S'%%%%%%%\n%     %\n%   p %\n%     %\n%  G  %\n%.    %\n%%%%%%%'
p493
g2
tp494
F-1.2405073197527812
s(S'%%%%%%%\n%     %\n%     %\n%    p%\n%     %\n%.G   %\n%%%%%%%'
p495
g5
tp496
F-0.6693789339895663
s(S'%%%%%%%\n%     %\n%   p %\n%     %\n%     %\n%.  G %\n%%%%%%%'
p497
g13
tp498
F-0.7122601240244744
s(S'%%%%%%%\n%     %\n%     %\n%    G%\n%p    %\n%.    %\n%%%%%%%'
p499
g10
tp500
F0.0
s(S'%%%%%%%\n%   p %\n%     %\n%     %\n%     %\n%. G  %\n%%%%%%%'
p501
g2
tp502
F-0.6856936656799021
s(S'%%%%%%%\n%     %\n%     %\n%    p%\n%     %\n%.  G %\n%%%%%%%'
p503
g5
tp504
F-0.557106475143394
s(S'%%%%%%%\n%     %\n%  p  %\n%     %\n% G   %\n%.    %\n%%%%%%%'
p505
g2
tp506
F-0.8898687295286487
s(S'%%%%%%%\n%   p %\n%   G %\n%     %\n%     %\n%.    %\n%%%%%%%'
p507
g13
tp508
F-1.1410457785092711
s(S'%%%%%%%\n%     %\n%    G%\n%  p  %\n%     %\n%.    %\n%%%%%%%'
p509
g10
tp510
F-0.5045390176459791
s(S'%%%%%%%\n%     %\n%    G%\n%    p%\n%     %\n%.    %\n%%%%%%%'
p511
g5
tp512
F-1.1278041045046667
s(S'%%%%%%%\n%     %\n%     %\n%  p  %\n%G    %\n%.    %\n%%%%%%%'
p513
g10
tp514
F-0.4526786372214948
s(S'%%%%%%%\n%     %\n%     %\n%     %\n%   G %\n%.p   %\n%%%%%%%'
p515
g10
tp516
F0.19556331250000009
s(S'%%%%%%%\n%     %\n%     %\n%     %\n%    p%\n%.   G%\n%%%%%%%'
p517
g13
tp518
F-0.4299447694329262
s(S'%%%%%%%\n%     %\n%  Gp.%\n%     %\n%     %\n%.    %\n%%%%%%%'
p519
g2
tp520
F0.0
s(S'%%%%%%%\n%     %\n%     %\n%   p %\n%     %\n%. G  %\n%%%%%%%'
p521
g10
tp522
F-0.5403070816453885
s(S'%%%%%%%\n%     %\n%     %\n%   p %\n%     %\n%. G  %\n%%%%%%%'
p523
g5
tp524
F-0.5191779347600464
s(S'%%%%%%%\n%     %\n%     %\n%     %\n%  Gp %\n%.    %\n%%%%%%%'
p525
g2
tp526
F-0.6879120674639417
s(S'%%%%%%%\n%   p %\n% G  .%\n%     %\n%     %\n%.    %\n%%%%%%%'
p527
g5
tp528
F-0.05
s(S'%%%%%%%\n%p    %\n%G    %\n%     %\n%     %\n%.    %\n%%%%%%%'
p529
g2
tp530
F-0.4120523313554391
s(S'%%%%%%%\n%     %\n%     %\n%     %\n%p    %\n%G    %\n%%%%%%%'
p531
g5
tp532
F254.5
s(S'%%%%%%%\n%     %\n%    p%\n%     %\n%     %\n%G    %\n%%%%%%%'
p533
g10
tp534
F-1.0009589875325302
s(S'%%%%%%%\n%     %\n%    G%\n%    p%\n%     %\n%.    %\n%%%%%%%'
p535
g10
tp536
F-25.05
s(S'%%%%%%%\n%     %\n%    G%\n%     %\n%   p %\n%.    %\n%%%%%%%'
p537
g13
tp538
F0.6261818213459204
s(S'%%%%%%%\n%     %\n%     %\n%   Gp%\n%     %\n%.    %\n%%%%%%%'
p539
g13
tp540
F-25.05
s(S'%%%%%%%\n%  pG %\n%     %\n%     %\n%     %\n%.    %\n%%%%%%%'
p541
g13
tp542
F-0.6893060971897986
s(S'%%%%%%%\n%     %\n%   G %\n%     %\n%  p  %\n%.    %\n%%%%%%%'
p543
g10
tp544
F-0.3303245496281671
s(S'%%%%%%%\n%    G%\n%     %\n%     %\n%  p  %\n%.    %\n%%%%%%%'
p545
g13
tp546
F0.05272125000000001
s(S'%%%%%%%\n%  p  %\n%     %\n%     %\n%  G  %\n%.    %\n%%%%%%%'
p547
g5
tp548
F-0.6900273942284905
s(S'%%%%%%%\n%     %\n%     %\n% G  p%\n%     %\n%.    %\n%%%%%%%'
p549
g13
tp550
F-0.9792383182568529
s(S'%%%%%%%\n%     %\n%     %\n%     %\n% G  p%\n%.    %\n%%%%%%%'
p551
g5
tp552
F-0.6034671336431578
s(S'%%%%%%%\n%     %\n%     %\n%     %\n%  p  %\n%G    %\n%%%%%%%'
p553
g13
tp554
F33.99903356954092
s(S'%%%%%%%\n%  G  %\n%     %\n% p   %\n%     %\n%.    %\n%%%%%%%'
p555
g5
tp556
F10.778037951831925
s(S'%%%%%%%\n%     %\n%  G  %\n%p    %\n%     %\n%.    %\n%%%%%%%'
p557
g2
tp558
F-0.09975
s(S'%%%%%%%\n%     %\n%p    %\n%     %\n%   G %\n%.    %\n%%%%%%%'
p559
g5
tp560
F5.456725319629829
s(S'%%%%%%%\n%     %\n%     %\n% p   %\n%     %\n%. G  %\n%%%%%%%'
p561
g2
tp562
F-0.2526175188913056
s(S'%%%%%%%\n%     %\n% G   %\n%   p %\n%     %\n%.    %\n%%%%%%%'
p563
g2
tp564
F-1.0086888907674774
s(S'%%%%%%%\n%     %\n%     %\n%Gp   %\n%     %\n%.    %\n%%%%%%%'
p565
g2
tp566
F-0.2461532811019203
s(S'%%%%%%%\n%     %\n%     %\n%     %\n%    G%\n%. p  %\n%%%%%%%'
p567
g13
tp568
F-0.0886996509375
s(S'%%%%%%%\n%     %\n%  p  %\n%     %\n%     %\n%.   G%\n%%%%%%%'
p569
g5
tp570
F-0.2146337614967085
s(S'%%%%%%%\n%     %\n%     %\n% p   %\n% G   %\n%.    %\n%%%%%%%'
p571
g13
tp572
F5.4279908461775515
s(S'%%%%%%%\n%    G%\n%    p%\n%     %\n%     %\n%.    %\n%%%%%%%'
p573
g5
tp574
F-0.9016497715228674
s(S'%%%%%%%\n%     %\n%     %\n%     %\n% p   %\n%.  G %\n%%%%%%%'
p575
g2
tp576
F0.0
s(S'%%%%%%%\n%     %\n%    p%\n%     %\n% G   %\n%.    %\n%%%%%%%'
p577
g13
tp578
F-1.3225935858340612
s(S'%%%%%%%\n%   G %\n%     %\n%    p%\n%     %\n%.    %\n%%%%%%%'
p579
g5
tp580
F-0.7738047426501073
s(S'%%%%%%%\n% p   %\n%     %\n%     %\n%     %\n%. G  %\n%%%%%%%'
p581
g5
tp582
F-0.3174570223469716
s(S'%%%%%%%\n%     %\n%     %\n%     %\n% pG  %\n%.    %\n%%%%%%%'
p583
g2
tp584
F-25.05
s(S'%%%%%%%\n%    G%\n%     %\n%   p %\n%     %\n%.    %\n%%%%%%%'
p585
g2
tp586
F-0.5375680385965552
s(S'%%%%%%%\n%  p  %\n%G    %\n%     %\n%     %\n%.    %\n%%%%%%%'
p587
g2
tp588
F-0.6828240172448062
s(S'%%%%%%%\n%     %\n%     %\n%     %\n% G   %\n%.p   %\n%%%%%%%'
p589
g2
tp590
F-0.0975
s(S'%%%%%%%\n%     %\n%    p%\n%    G%\n%     %\n%.    %\n%%%%%%%'
p591
g5
tp592
F-25.05
s(S'%%%%%%%\n%     %\n%     %\n%  G  %\n%  p  %\n%.    %\n%%%%%%%'
p593
g13
tp594
F62.84301173192699
s(S'%%%%%%%\n%     %\n%   G %\n%     %\n%    p%\n%.    %\n%%%%%%%'
p595
g10
tp596
F-1.0072561344242197
s(S'%%%%%%%\n% p   %\n% G   %\n%     %\n%     %\n%.    %\n%%%%%%%'
p597
g13
tp598
F-0.7600888361349412
s(S'%%%%%%%\n%    p%\n%     %\n%     %\n%  G  %\n%.    %\n%%%%%%%'
p599
g13
tp600
F-1.1676097021002334
s(S'%%%%%%%\n%     %\n%     %\n%     %\n%  Gp %\n%.    %\n%%%%%%%'
p601
g5
tp602
F0.6493184996350476
s(S'%%%%%%%\n%     %\n%     %\n% Gp  %\n%     %\n%.    %\n%%%%%%%'
p603
g13
tp604
F-25.05
s(S'%%%%%%%\n%     %\n%     %\n%   p %\n%     %\n%G    %\n%%%%%%%'
p605
g2
tp606
F-0.7167185868581052
s(S'%%%%%%%\n%     %\n%     %\n%     %\n%     %\n%. pG %\n%%%%%%%'
p607
g13
tp608
F91.27445037376408
s(S'%%%%%%%\n%     %\n%G    %\n%     %\n%     %\n%.   p%\n%%%%%%%'
p609
g10
tp610
F-0.4085874510874258
s(S'%%%%%%%\n%     %\n%     %\n%    p%\n%G    %\n%.    %\n%%%%%%%'
p611
g13
tp612
F-0.9904261382614828
s(S'%%%%%%%\n%     %\n%     %\n%     %\n%  p  %\n%. G  %\n%%%%%%%'
p613
g5
tp614
F-25.05
s(S'%%%%%%%\n%     %\n%     %\n%    G%\n%     %\n%.p   %\n%%%%%%%'
p615
g2
tp616
F-0.09975
s(S'%%%%%%%\n% p   %\n%     %\n%     %\n%   G %\n%.    %\n%%%%%%%'
p617
g5
tp618
F-0.5167111658447684
s(S'%%%%%%%\n%     %\n%     %\n%G  p %\n%     %\n%.    %\n%%%%%%%'
p619
g5
tp620
F-0.46640439687153973
s(S'%%%%%%%\n%  G  %\n%     %\n%   p %\n%     %\n%.    %\n%%%%%%%'
p621
g10
tp622
F-0.7983802868945339
s(S'%%%%%%%\n%     %\n%    G%\n%    p%\n%     %\n%.    %\n%%%%%%%'
p623
g13
tp624
F-0.863457563132105
s(S'%%%%%%%\n%     %\n% p   %\n%   G %\n%     %\n%.    %\n%%%%%%%'
p625
g13
tp626
F-0.29463691161587025
s(S'%%%%%%%\n%p    %\n%     %\n%   G %\n%     %\n%.    %\n%%%%%%%'
p627
g5
tp628
F-0.48485115097470977
s(S'%%%%%%%\n%     %\n%   G %\n%     %\n%p    %\n%.    %\n%%%%%%%'
p629
g2
tp630
F-0.0975
s(S'%%%%%%%\n%     %\n%  G  %\n%     %\n% p   %\n%.    %\n%%%%%%%'
p631
g5
tp632
F206.66829192634435
s(S'%%%%%%%\n% G   %\n%     %\n%     %\n%     %\n%.   p%\n%%%%%%%'
p633
g10
tp634
F-0.2467243799140625
s(S'%%%%%%%\n% G   %\n%     %\n%     %\n% p   %\n%.    %\n%%%%%%%'
p635
g13
tp636
F-0.05
s(S'%%%%%%%\n%     %\n% G   %\n%     %\n%    p%\n%.    %\n%%%%%%%'
p637
g5
tp638
F-0.7427058469510799
s(S'%%%%%%%\n%  p  %\n%     %\n%     %\n%     %\n%.G   %\n%%%%%%%'
p639
g13
tp640
F-0.6948365161477676
s(S'%%%%%%%\n%     %\n%     %\n%  p  %\n%     %\n%.  G %\n%%%%%%%'
p641
g13
tp642
F1.1695434101928555
s(S'%%%%%%%\n%     %\n%  G  %\n%     %\n% p   %\n%.    %\n%%%%%%%'
p643
g10
tp644
F0.0
s(S'%%%%%%%\n%Gp   %\n%     %\n%     %\n%     %\n%.    %\n%%%%%%%'
p645
g13
tp646
F-25.05
s(S'%%%%%%%\n%    p%\n%  G  %\n%     %\n%     %\n%.    %\n%%%%%%%'
p647
g13
tp648
F-1.5762696417980206
s(S'%%%%%%%\n%     %\n%     %\n%     %\n% p  G%\n%.    %\n%%%%%%%'
p649
g5
tp650
F-0.05
s(S'%%%%%%%\n%     %\n%p    %\n%     %\n%     %\n%G    %\n%%%%%%%'
p651
g5
tp652
F19.85299472652236
s(S'%%%%%%%\n%     %\n%p    %\n%     %\n%     %\n%G    %\n%%%%%%%'
p653
g10
tp654
F-0.14915
s(S'%%%%%%%\n%     %\n%     %\n%pG   %\n%     %\n%.    %\n%%%%%%%'
p655
g10
tp656
F-0.144875
s(S'%%%%%%%\n%     %\n%    p%\n%  G  %\n%     %\n%.    %\n%%%%%%%'
p657
g10
tp658
F-1.3352533608484334
s(S'%%%%%%%\n%     %\n%    p%\n%G    %\n%     %\n%.    %\n%%%%%%%'
p659
g13
tp660
F-1.7441083170290157
s(S'%%%%%%%\n%     %\n%     %\n% G   %\n%     %\n%. p  %\n%%%%%%%'
p661
g13
tp662
F170.09473417206434
s(S'%%%%%%%\n%   p %\n%     %\n%  G  %\n%     %\n%.    %\n%%%%%%%'
p663
g13
tp664
F-1.15789182791866
s(S'%%%%%%%\n%p    %\n%     %\n%   G %\n%     %\n%.    %\n%%%%%%%'
p665
g2
tp666
F-0.3917767366774184
s(S'%%%%%%%\n%     %\n%     %\n% p   %\n%     %\n%.   G%\n%%%%%%%'
p667
g2
tp668
F-0.1470125
s(S'%%%%%%%\n%  p  %\n%     %\n%     %\n%     %\n%.G   %\n%%%%%%%'
p669
g5
tp670
F-0.6773630799200934
s(S'%%%%%%%\n%   p %\n%     %\n%G    %\n%     %\n%.    %\n%%%%%%%'
p671
g2
tp672
F-1.0504187735142922
s(S'%%%%%%%\n%     %\n%     %\n%G    %\n%    p%\n%.    %\n%%%%%%%'
p673
g13
tp674
F-0.44908189192031933
s(S'%%%%%%%\n%     %\n%     %\n%  p  %\n%     %\n%.  G %\n%%%%%%%'
p675
g5
tp676
F2.827922473722484
s(S'%%%%%%%\n%     %\n%    G%\n%     %\n%     %\n%. p  %\n%%%%%%%'
p677
g10
tp678
F-0.144875
s(S'%%%%%%%\n% G   %\n%   p %\n%     %\n%     %\n%.    %\n%%%%%%%'
p679
g2
tp680
F-1.2102338988981955
s(S'%%%%%%%\n%     %\n%     %\n%     %\n%     %\n%.Gp  %\n%%%%%%%'
p681
g2
tp682
F-0.3616321605386147
s(S'%%%%%%%\n%     %\n% p   %\n%     %\n%     %\n%.G   %\n%%%%%%%'
p683
g10
tp684
F-0.37229131515305647
s(S'%%%%%%%\n% G   %\n%     %\n%    p%\n%     %\n%.    %\n%%%%%%%'
p685
g10
tp686
F-1.7900223026220976
s(S'%%%%%%%\n%  G  %\n%     %\n%     %\n%     %\n%.  p %\n%%%%%%%'
p687
g2
tp688
F-0.35309842256405133
s(S'%%%%%%%\n%     %\n%   G %\n%     %\n%     %\n%.p   %\n%%%%%%%'
p689
g13
tp690
F865.3000000000005
s(S'%%%%%%%\n%     %\n%  p  %\n%     %\n%     %\n%. G  %\n%%%%%%%'
p691
g5
tp692
F0.2533836036341588
s(S'%%%%%%%\n%     %\n%  p  %\n%     %\n%     %\n%.   G%\n%%%%%%%'
p693
g2
tp694
F-0.32342661720996196
s(S'%%%%%%%\n%     %\n%   G %\n%     %\n%    p%\n%.    %\n%%%%%%%'
p695
g5
tp696
F-0.7869082154413005
s(S'%%%%%%%\n%    p%\n%     %\n%     %\n%     %\n%.  G %\n%%%%%%%'
p697
g13
tp698
F-0.7528160502522621
s(S'%%%%%%%\n%     %\n%     %\n%     %\n%     %\n%.p  G%\n%%%%%%%'
p699
g10
tp700
F0.36407625000000016
s(S'%%%%%%%\n%G  p %\n%     %\n%     %\n%     %\n%.    %\n%%%%%%%'
p701
g13
tp702
F-0.7852707576091655
s(S'%%%%%%%\n%     %\n%     %\n%    G%\n%     %\n%.  p %\n%%%%%%%'
p703
g13
tp704
F2.86157725242839
s(S'%%%%%%%\n%  G  %\n%     %\n%     %\n%    p%\n%.    %\n%%%%%%%'
p705
g10
tp706
F-1.0174024308806628
s(S'%%%%%%%\n% G   %\n%     %\n%p    %\n%     %\n%.    %\n%%%%%%%'
p707
g2
tp708
F0.0
s(S'%%%%%%%\n%     %\n%     %\n%  Gp %\n%     %\n%.    %\n%%%%%%%'
p709
g10
tp710
F-0.9584102705630655
s(S'%%%%%%%\n%     %\n%  pG %\n%     %\n%     %\n%.    %\n%%%%%%%'
p711
g10
tp712
F-0.6447379949715395
s(S'%%%%%%%\n%G    %\n%     %\n% p   %\n%     %\n%.    %\n%%%%%%%'
p713
g10
tp714
F0.0
s(S'%%%%%%%\n%     %\n%     %\n%     %\n%  Gp %\n%.    %\n%%%%%%%'
p715
g13
tp716
F-25.05
s(S'%%%%%%%\n%     %\n%     %\n%p    %\n%  G  %\n%.    %\n%%%%%%%'
p717
g5
tp718
F-0.0975
s(S'%%%%%%%\n% p   %\n%     %\n%    G%\n%     %\n%.    %\n%%%%%%%'
p719
g5
tp720
F-0.4101209857000435
s(S'%%%%%%%\n%     %\n%     %\n%     %\n%p    %\n%G    %\n%%%%%%%'
p721
g2
tp722
F0.0
s(S'%%%%%%%\n%     %\n%     %\n%     %\n% G   %\n%.  p %\n%%%%%%%'
p723
g10
tp724
F-0.4695302389305879
s(S'%%%%%%%\n%     %\n%     %\n%     %\n%    p%\n%. G  %\n%%%%%%%'
p725
g13
tp726
F-0.19181512923301608
s(S'%%%%%%%\n%     %\n%p    %\n%     %\n%     %\n%.   G%\n%%%%%%%'
p727
g2
tp728
F-0.19827409031249998
s(S'%%%%%%%\n%     %\n%     %\n%     %\n%  G  %\n%. p  %\n%%%%%%%'
p729
g13
tp730
F135.38335160424742
s(S'%%%%%%%\n%     %\n%     %\n%     %\n%    p%\n%G    %\n%%%%%%%'
p731
g13
tp732
F-0.38611944198092013
s(S'%%%%%%%\n%     %\n%     %\n%  G  %\n%     %\n%.p   %\n%%%%%%%'
p733
g10
tp734
F-0.05
s(S'%%%%%%%\n%     %\n%     %\n%  Gp %\n%     %\n%.    %\n%%%%%%%'
p735
g5
tp736
F-0.22104958560335503
s(S'%%%%%%%\n%  p  %\n%     %\n%   G %\n%     %\n%.    %\n%%%%%%%'
p737
g5
tp738
F-0.7759006870175131
s(S'%%%%%%%\n%     %\n%     %\n%     %\n% G   %\n%.  p %\n%%%%%%%'
p739
g13
tp740
F17.474819749859495
s(S'%%%%%%%\n% G   %\n%     %\n%     %\n%   p %\n%.    %\n%%%%%%%'
p741
g10
tp742
F-0.3391763139867815
s(S'%%%%%%%\n%     %\n%G    %\n%     %\n% p   %\n%.    %\n%%%%%%%'
p743
g10
tp744
F-0.05
s(S'%%%%%%%\n%     %\n%     %\n%     %\n%Gp   %\n%.    %\n%%%%%%%'
p745
g13
tp746
F0.0
s(S'%%%%%%%\n%     %\n%G    %\n%     %\n% p   %\n%.    %\n%%%%%%%'
p747
g5
tp748
F141.75572668968982
s(S'%%%%%%%\n%    G%\n%  p  %\n%     %\n%     %\n%.    %\n%%%%%%%'
p749
g2
tp750
F-0.4273695834737201
s(S'%%%%%%%\n%     %\n%    p%\n%     %\n%     %\n%.   G%\n%%%%%%%'
p751
g10
tp752
F-0.702845377184614
s(S'%%%%%%%\n%     %\n%  p  %\n%G    %\n%     %\n%.    %\n%%%%%%%'
p753
g13
tp754
F-0.5569346094219944
s(S'%%%%%%%\n%     %\n%     %\n%     %\n%    p%\n%G    %\n%%%%%%%'
p755
g5
tp756
F-0.6141828329018766
s(S'%%%%%%%\n%  G  %\n%     %\n% p   %\n%     %\n%.    %\n%%%%%%%'
p757
g10
tp758
F-0.15162754259721467
s(S'%%%%%%%\n%     %\n%     %\n%     %\n%   pG%\n%.    %\n%%%%%%%'
p759
g13
tp760
F0.31872261498323334
s(S'%%%%%%%\n%     %\n%    G%\n%     %\n%   p %\n%.    %\n%%%%%%%'
p761
g5
tp762
F-0.5567954593353613
s(S'%%%%%%%\n%     %\n%   G %\n%     %\n%     %\n%.  p %\n%%%%%%%'
p763
g10
tp764
F-0.37981221684436367
s(S'%%%%%%%\n%G    %\n%     %\n%   p %\n%     %\n%.    %\n%%%%%%%'
p765
g10
tp766
F-0.45104674958826074
s(S'%%%%%%%\n%     %\n%     %\n%  p  %\n%  G  %\n%.    %\n%%%%%%%'
p767
g13
tp768
F17.429411834250907
s(S'%%%%%%%\n%    G%\n%     %\n%     %\n%  p  %\n%.    %\n%%%%%%%'
p769
g5
tp770
F5.8195514454339055
s(S'%%%%%%%\n% G   %\n%     %\n%    p%\n%     %\n%.    %\n%%%%%%%'
p771
g13
tp772
F-1.008257559024167
s(S'%%%%%%%\n%     %\n%G    %\n%     %\n%   p %\n%.    %\n%%%%%%%'
p773
g13
tp774
F3.175257877751173
s(S'%%%%%%%\n%   G %\n%     %\n%     %\n%     %\n%. p  %\n%%%%%%%'
p775
g10
tp776
F-0.17804787624722657
s(S'%%%%%%%\n%     %\n%     %\n%    G%\n%    p%\n%.    %\n%%%%%%%'
p777
g10
tp778
F-25.05
s(S'%%%%%%%\n%     %\n%   G %\n%     %\n%     %\n%.p   %\n%%%%%%%'
p779
g2
tp780
F-0.0975
s(S'%%%%%%%\n%     %\n%  G  %\n%     %\n%   p %\n%.    %\n%%%%%%%'
p781
g10
tp782
F-0.7455068930443186
s(S'%%%%%%%\n%     %\n%     %\n%    p%\n%G    %\n%.    %\n%%%%%%%'
p783
g10
tp784
F-1.2837106617475784
s(S'%%%%%%%\n%G    %\n%     %\n% p   %\n%     %\n%.    %\n%%%%%%%'
p785
g5
tp786
F2.9375981682790364
s(S'%%%%%%%\n%  p  %\n%     %\n%     %\n%    G%\n%.    %\n%%%%%%%'
p787
g13
tp788
F-0.6911184721908774
s(S'%%%%%%%\n%     %\n%     %\n%   Gp%\n%     %\n%.    %\n%%%%%%%'
p789
g5
tp790
F-1.2648944847072818
s(S'%%%%%%%\n% p  G%\n%     %\n%     %\n%     %\n%.    %\n%%%%%%%'
p791
g5
tp792
F-0.16110927366127462
s(S'%%%%%%%\n%     %\n%    p%\n%     %\n% G   %\n%.    %\n%%%%%%%'
p793
g5
tp794
F-1.2597731306757656
s(S'%%%%%%%\n%     %\n%     %\n%     %\n%  p  %\n%G    %\n%%%%%%%'
p795
g2
tp796
F-0.0565143125
s(S'%%%%%%%\n%     %\n% G   %\n%     %\n%p    %\n%.    %\n%%%%%%%'
p797
g10
tp798
F-0.05
s(S'%%%%%%%\n%    p%\n%G   .%\n%     %\n%     %\n%.    %\n%%%%%%%'
p799
g13
tp800
F-0.18549375
s(S'%%%%%%%\n%     %\n%Gp   %\n%     %\n%     %\n%.    %\n%%%%%%%'
p801
g10
tp802
F-0.1639353429919932
s(S'%%%%%%%\n%     %\n%G    %\n%    p%\n%     %\n%.    %\n%%%%%%%'
p803
g13
tp804
F-0.745353005230507
s(S'%%%%%%%\n%     %\n%     %\n%    G%\n%     %\n%.  p %\n%%%%%%%'
p805
g2
tp806
F-0.5202720324787478
s(S'%%%%%%%\n%     %\n%     %\n%     %\n% p   %\n%.  G %\n%%%%%%%'
p807
g13
tp808
F138.87536687985101
s(S'%%%%%%%\n%     %\n%     %\n%   pG%\n%     %\n%.    %\n%%%%%%%'
p809
g13
tp810
F-0.3485098410476857
s(S'%%%%%%%\n%     %\n%    G%\n%     %\n% p   %\n%.    %\n%%%%%%%'
p811
g13
tp812
F3.0113570389687507
s(S'%%%%%%%\n%  Gp %\n%     %\n%     %\n%     %\n%.    %\n%%%%%%%'
p813
g5
tp814
F-1.4211822859709327
s(S'%%%%%%%\n%G    %\n%     %\n% p   %\n%     %\n%.    %\n%%%%%%%'
p815
g2
tp816
F0.0
s(S'%%%%%%%\n%     %\n%   Gp%\n%     %\n%     %\n%.    %\n%%%%%%%'
p817
g10
tp818
F-1.6709761840983144
s(S'%%%%%%%\n%     %\n%     %\n%Gp   %\n%     %\n%.    %\n%%%%%%%'
p819
g10
tp820
F-0.24150222156330584
s(S'%%%%%%%\n%     %\n% p   %\n%     %\n%  G  %\n%.    %\n%%%%%%%'
p821
g13
tp822
F0.06791881489452972
s(S'%%%%%%%\n%     %\n%     %\n%    p%\n%  G  %\n%.    %\n%%%%%%%'
p823
g5
tp824
F-0.8952890388118397
s(S'%%%%%%%\n%     %\n% G   %\n%   p %\n%     %\n%.    %\n%%%%%%%'
p825
g5
tp826
F-0.49746305730315143
s(S'%%%%%%%\n%     %\n%p    %\n%     %\n% G   %\n%.    %\n%%%%%%%'
p827
g10
tp828
F-0.153600809375
s(S'%%%%%%%\n%  G  %\n%     %\n%     %\n%p    %\n%.    %\n%%%%%%%'
p829
g5
tp830
F363.93499999999995
s(S'%%%%%%%\n%     %\n%  p  %\n%     %\n%     %\n%.   G%\n%%%%%%%'
p831
g10
tp832
F-0.5385828273671378
s(S'%%%%%%%\n%G    %\n%     %\n%     %\n%     %\n%.  p %\n%%%%%%%'
p833
g2
tp834
F0.0
s(S'%%%%%%%\n%     %\n%     %\n%    G%\n%  p  %\n%.    %\n%%%%%%%'
p835
g10
tp836
F0.18645424673761637
s(S'%%%%%%%\n%     %\n%G  p %\n%     %\n%     %\n%.    %\n%%%%%%%'
p837
g2
tp838
F-1.1026112057525201
s(S'%%%%%%%\n%     %\n%    p%\n%     %\n%   G %\n%.    %\n%%%%%%%'
p839
g13
tp840
F-0.9576331111952737
s(S'%%%%%%%\n%     %\n%     %\n%  G  %\n%    p%\n%.    %\n%%%%%%%'
p841
g10
tp842
F-0.9392570805426725
s(S'%%%%%%%\n%     %\n% p   %\n%     %\n%    G%\n%.    %\n%%%%%%%'
p843
g13
tp844
F-0.16496707173771755
s(S'%%%%%%%\n%     %\n%  p  %\n%     %\n%   G %\n%.    %\n%%%%%%%'
p845
g2
tp846
F-0.7314352751879676
s(S'%%%%%%%\n%     %\n%   p %\n%     %\n%  G  %\n%.    %\n%%%%%%%'
p847
g13
tp848
F-0.91042436019218
s(S'%%%%%%%\n%    p%\n%     %\n%   G %\n%     %\n%.    %\n%%%%%%%'
p849
g5
tp850
F-1.324513725742447
s(S'%%%%%%%\n%   p %\n%     %\n%     %\n%   G %\n%.    %\n%%%%%%%'
p851
g2
tp852
F-1.1677508282411952
s(S'%%%%%%%\n%     %\n%     %\n%     %\n%p  G %\n%.    %\n%%%%%%%'
p853
g10
tp854
F0.0
s(S'%%%%%%%\n%     %\n%     %\n%G    %\n%  p  %\n%.    %\n%%%%%%%'
p855
g10
tp856
F-0.19788370858425747
s(S'%%%%%%%\n%    G%\n%     %\n%     %\n%     %\n%.p   %\n%%%%%%%'
p857
g13
tp858
F0.0
s(S'%%%%%%%\n%     %\n%     %\n% G   %\n%     %\n%.   p%\n%%%%%%%'
p859
g10
tp860
F-0.6011298925797128
s(S'%%%%%%%\n%     %\n%     %\n%   G %\n%   p %\n%.    %\n%%%%%%%'
p861
g10
tp862
F-25.05
s(S'%%%%%%%\n%     %\n%    p%\n%     %\n%     %\n%. G  %\n%%%%%%%'
p863
g5
tp864
F-0.7440034854196845
s(S'%%%%%%%\n%    G%\n%     %\n%     %\n%  p  %\n%.    %\n%%%%%%%'
p865
g2
tp866
F-0.20264534368181666
s(S'%%%%%%%\n%G    %\n%     %\n%     %\n%     %\n%.p   %\n%%%%%%%'
p867
g10
tp868
F-0.0975
s(S'%%%%%%%\n%   G %\n%     %\n%     %\n%   p %\n%.    %\n%%%%%%%'
p869
g2
tp870
F-0.6804261659088456
s(S'%%%%%%%\n%     %\n%  p  %\n%     %\n%   G %\n%.    %\n%%%%%%%'
p871
g5
tp872
F-0.19889361137987124
s(S'%%%%%%%\n%     %\n%     %\n% G   %\n%   p %\n%.    %\n%%%%%%%'
p873
g10
tp874
F-0.42040609789792505
s(S'%%%%%%%\n%    p%\n%  G  %\n%     %\n%     %\n%.    %\n%%%%%%%'
p875
g5
tp876
F-1.6335525974005596
s(S'%%%%%%%\n%     %\n%     %\n%     %\n%   G %\n%.  p %\n%%%%%%%'
p877
g2
tp878
F-0.6798983607537077
s(S'%%%%%%%\n%     %\n%     %\n%G  p %\n%     %\n%.    %\n%%%%%%%'
p879
g10
tp880
F-0.665945792984636
s(S'%%%%%%%\n%     %\n%     %\n%    G%\n%  p  %\n%.    %\n%%%%%%%'
p881
g13
tp882
F23.820565173162358
s(S'%%%%%%%\n%  G  %\n%     %\n%     %\n%     %\n%.p   %\n%%%%%%%'
p883
g13
tp884
F557.355
s(S'%%%%%%%\n%  G  %\n%  p  %\n%     %\n%     %\n%.    %\n%%%%%%%'
p885
g2
tp886
F-0.7322887821439856
s(S'%%%%%%%\n%   p %\n% G   %\n%     %\n%     %\n%.    %\n%%%%%%%'
p887
g5
tp888
F-1.130034621937397
s(S'%%%%%%%\n%     %\n%     %\n%p  G %\n%     %\n%.    %\n%%%%%%%'
p889
g5
tp890
F100.75586491469213
s(S'%%%%%%%\n%     %\n%   Gp%\n%     %\n%     %\n%.    %\n%%%%%%%'
p891
g13
tp892
F-25.05
s(S'%%%%%%%\n%     %\n%  p  %\n%     %\n%     %\n%. G  %\n%%%%%%%'
p893
g10
tp894
F-0.724642977810978
s(S'%%%%%%%\n%     %\n%     %\n%     %\n%     %\n%. Gp %\n%%%%%%%'
p895
g13
tp896
F-25.05
s(S'%%%%%%%\n% p   %\n%   G %\n%     %\n%     %\n%.    %\n%%%%%%%'
p897
g5
tp898
F-0.20935273982322264
s(S'%%%%%%%\n%     %\n%     %\n%     %\n% G   %\n%.p   %\n%%%%%%%'
p899
g10
tp900
F-25.05
s(S'%%%%%%%\n%     %\n%     %\n% G   %\n% p   %\n%.    %\n%%%%%%%'
p901
g5
tp902
F1.0952500000000003
s(S'%%%%%%%\n%     %\n%    G%\n%p    %\n%     %\n%.    %\n%%%%%%%'
p903
g10
tp904
F-0.1981149
s(S'%%%%%%%\n%     %\n%  G  %\n%     %\n%   p %\n%.    %\n%%%%%%%'
p905
g2
tp906
F-0.5201758356192622
s(S'%%%%%%%\n%     %\n%   G %\n% p   %\n%     %\n%.    %\n%%%%%%%'
p907
g2
tp908
F-0.19970409258396474
s(S'%%%%%%%\n%   G %\n%     %\n%    p%\n%     %\n%.    %\n%%%%%%%'
p909
g13
tp910
F-0.48643896180214774
s(S'%%%%%%%\n%G    %\n%p    %\n%     %\n%     %\n%.    %\n%%%%%%%'
p911
g10
tp912
F-25.05
s(S'%%%%%%%\n% p  G%\n%     %\n%     %\n%     %\n%.    %\n%%%%%%%'
p913
g13
tp914
F-0.29572280121377814
s(S'%%%%%%%\n%     %\n%     %\n% G  p%\n%     %\n%.    %\n%%%%%%%'
p915
g10
tp916
F-1.4476245992401162
s(S'%%%%%%%\n%     %\n%     %\n%  G  %\n%  p  %\n%.    %\n%%%%%%%'
p917
g2
tp918
F-0.3595315792368363
s(S'%%%%%%%\n%     %\n%     %\n%     %\n% Gp  %\n%.    %\n%%%%%%%'
p919
g5
tp920
F10.716442547405375
s(S'%%%%%%%\n%     %\n%     %\n%     %\n%p    %\n%. G  %\n%%%%%%%'
p921
g10
tp922
F-0.0007137499999999852
s(S'%%%%%%%\n%  p  %\n%     %\n%     %\n%G    %\n%.    %\n%%%%%%%'
p923
g5
tp924
F-0.5433366003920058
s(S'%%%%%%%\n%     %\n%  p  %\n%    G%\n%     %\n%.    %\n%%%%%%%'
p925
g2
tp926
F-0.40183553250475074
s(S'%%%%%%%\n%     %\n%   Gp%\n%     %\n%     %\n%.    %\n%%%%%%%'
p927
g5
tp928
F-1.3697607031887689
s(S'%%%%%%%\n%     %\n%     %\n%   pG%\n%     %\n%.    %\n%%%%%%%'
p929
g2
tp930
F-25.05
s(S'%%%%%%%\n%     %\n% p   %\n%     %\n%     %\n%.  G %\n%%%%%%%'
p931
g13
tp932
F-0.32305841569879223
s(S'%%%%%%%\n% Gp  %\n%     %\n%     %\n%     %\n%.    %\n%%%%%%%'
p933
g5
tp934
F-0.5506866925949819
s(S'%%%%%%%\n%   G %\n%   p %\n%     %\n%     %\n%.    %\n%%%%%%%'
p935
g2
tp936
F-1.038244625312678
s(S'%%%%%%%\n%     %\n%     %\n%     %\n%     %\n%. pG %\n%%%%%%%'
p937
g10
tp938
F-0.17107840504258942
s(S'%%%%%%%\n%     %\n%     %\n%p    %\n%  G  %\n%.    %\n%%%%%%%'
p939
g10
tp940
F-0.20148148866396387
s(S'%%%%%%%\n%     %\n%     %\n%  p  %\n%    G%\n%.    %\n%%%%%%%'
p941
g10
tp942
F-0.3144843524661881
s(S'%%%%%%%\n%     %\n%p    %\n%  G  %\n%     %\n%.    %\n%%%%%%%'
p943
g5
tp944
F6.528842484787462
s(S'%%%%%%%\n%  G  %\n%    p%\n%     %\n%     %\n%.    %\n%%%%%%%'
p945
g10
tp946
F-1.3558706637422142
s(S'%%%%%%%\n%     %\n%     %\n%     %\n%   p %\n%.G   %\n%%%%%%%'
p947
g2
tp948
F-0.5973742092242225
s(S'%%%%%%%\n%  Gp %\n%     %\n%     %\n%     %\n%.    %\n%%%%%%%'
p949
g2
tp950
F-1.437347990171058
s(S'%%%%%%%\n%  G  %\n%     %\n%   p %\n%     %\n%.    %\n%%%%%%%'
p951
g13
tp952
F-0.44130323474921773
s(S'%%%%%%%\n%     %\n%     %\n% G   %\n%     %\n%.   p%\n%%%%%%%'
p953
g13
tp954
F0.17703869619718174
s(S'%%%%%%%\n%     %\n%   p %\n%     %\n%    G%\n%.    %\n%%%%%%%'
p955
g5
tp956
F-0.5436368952776629
s(S'%%%%%%%\n%     %\n%     %\n%     %\n%p    %\n%. G  %\n%%%%%%%'
p957
g5
tp958
F623.8431250000001
s(S'%%%%%%%\n%  p  %\n%G    %\n%     %\n%     %\n%.    %\n%%%%%%%'
p959
g5
tp960
F-0.6841651409827135
s(S'%%%%%%%\n%     %\n%    G%\n%     %\n%     %\n%. p  %\n%%%%%%%'
p961
g13
tp962
F73.73589352504686
s(S'%%%%%%%\n%   p %\n%   G %\n%     %\n%     %\n%.    %\n%%%%%%%'
p963
g5
tp964
F-25.05
s(S'%%%%%%%\n%  p  %\n%     %\n% G   %\n%     %\n%.    %\n%%%%%%%'
p965
g5
tp966
F-0.8045922593216145
s(S'%%%%%%%\n%G    %\n%     %\n%     %\n%  p  %\n%.    %\n%%%%%%%'
p967
g13
tp968
F26.360377304729276
s(S'%%%%%%%\n%     %\n%     %\n%     %\n%   pG%\n%.    %\n%%%%%%%'
p969
g10
tp970
F-0.4947268146314151
s(S'%%%%%%%\n% p   %\n%     %\n%G    %\n%     %\n%.    %\n%%%%%%%'
p971
g2
tp972
F-0.6570028997721743
s(S'%%%%%%%\n%     %\n%     %\n%     %\n%     %\n%.pG  %\n%%%%%%%'
p973
g10
tp974
F1.0943757218437506
s(S'%%%%%%%\n%     %\n%     %\n%   p %\n%   G %\n%.    %\n%%%%%%%'
p975
g2
tp976
F-0.7302547872598398
s(S'%%%%%%%\n%     %\n% G   %\n%     %\n%p    %\n%.    %\n%%%%%%%'
p977
g5
tp978
F585.35
s(S'%%%%%%%\n%     %\n%    p%\n%     %\n%     %\n%.   G%\n%%%%%%%'
p979
g13
tp980
F-0.8046531349143935
s(S'%%%%%%%\n%     %\n%     %\n%     %\n%p    %\n%.   G%\n%%%%%%%'
p981
g5
tp982
F486.0313749999999
s(S'%%%%%%%\n%  p  %\n%    G%\n%     %\n%     %\n%.    %\n%%%%%%%'
p983
g2
tp984
F-0.845495278229916
s(S'%%%%%%%\n% p   %\n%     %\n%     %\n% G   %\n%.    %\n%%%%%%%'
p985
g5
tp986
F-0.5354241722898774
s(S'%%%%%%%\n%p    %\n%     %\n%     %\n%G    %\n%.    %\n%%%%%%%'
p987
g5
tp988
F-0.2414464636167969
s(S'%%%%%%%\n%   G %\n%     %\n%  p  %\n%     %\n%.    %\n%%%%%%%'
p989
g2
tp990
F-0.3842775501561948
s(S'%%%%%%%\n% p   %\n%     %\n%G    %\n%     %\n%.    %\n%%%%%%%'
p991
g5
tp992
F-0.4699256045194398
s(S'%%%%%%%\n%     %\n%     %\n%     %\n%G    %\n%. p  %\n%%%%%%%'
p993
g2
tp994
F-0.31058400235156247
s(S'%%%%%%%\n%     %\n%   p %\n%     %\n%     %\n%.  G %\n%%%%%%%'
p995
g5
tp996
F-0.504372195967549
s(S'%%%%%%%\n%     %\n% p   %\n% G   %\n%     %\n%.    %\n%%%%%%%'
p997
g2
tp998
F-0.5012191495027785
s(S'%%%%%%%\n%     %\n%    G%\n%  p  %\n%     %\n%.    %\n%%%%%%%'
p999
g5
tp1000
F-0.09915841840347654
s(S'%%%%%%%\n%     %\n%  p  %\n%G    %\n%     %\n%.    %\n%%%%%%%'
p1001
g2
tp1002
F-0.5402787928490701
s(S'%%%%%%%\n%  G  %\n%     %\n%     %\n%     %\n%.p   %\n%%%%%%%'
p1003
g2
tp1004
F0.0
s(S'%%%%%%%\n%   p %\n% G   %\n%     %\n%     %\n%.    %\n%%%%%%%'
p1005
g13
tp1006
F-1.1088161399201668
s(S'%%%%%%%\n%     %\n%     %\n%G    %\n%    p%\n%.    %\n%%%%%%%'
p1007
g10
tp1008
F-0.6986092676668956
s(S'%%%%%%%\n%     %\n%  G  %\n%     %\n%     %\n%.   p%\n%%%%%%%'
p1009
g13
tp1010
F-0.07177272757387704
s(S'%%%%%%%\n%     %\n%     %\n% G   %\n%   p %\n%.    %\n%%%%%%%'
p1011
g2
tp1012
F-0.5700401629265169
s(S'%%%%%%%\n% G   %\n%   p %\n%     %\n%     %\n%.    %\n%%%%%%%'
p1013
g13
tp1014
F-0.8415999181961646
s(S'%%%%%%%\n% p   %\n%     %\n%     %\n%     %\n%G    %\n%%%%%%%'
p1015
g2
tp1016
F-0.36795121821213295
s(S'%%%%%%%\n%     %\n%G    %\n%    p%\n%     %\n%.    %\n%%%%%%%'
p1017
g10
tp1018
F-1.1791130756486337
s(S'%%%%%%%\n%     %\n%G    %\n%  p  %\n%     %\n%.    %\n%%%%%%%'
p1019
g13
tp1020
F-0.08386215273234185
s(S'%%%%%%%\n%p    %\n%G    %\n%     %\n%     %\n%.    %\n%%%%%%%'
p1021
g5
tp1022
F-25.05
s(S'%%%%%%%\n%     %\n%     %\n% p   %\n%     %\n%.   G%\n%%%%%%%'
p1023
g10
tp1024
F-0.102181125
s(S'%%%%%%%\n%     %\n%     %\n%  pG %\n%     %\n%.    %\n%%%%%%%'
p1025
g2
tp1026
F-25.05
s(S'%%%%%%%\n%   G %\n%     %\n%p    %\n%     %\n%.    %\n%%%%%%%'
p1027
g2
tp1028
F-0.0975
s(S'%%%%%%%\n%G    %\n%     %\n%     %\n%p    %\n%.    %\n%%%%%%%'
p1029
g5
tp1030
F101.80000000000001
s(S'%%%%%%%\n%  G  %\n%     %\n%     %\n%    p%\n%.    %\n%%%%%%%'
p1031
g13
tp1032
F-0.5256962042229529
s(S'%%%%%%%\n%  p  %\n%     %\n%     %\n%    G%\n%.    %\n%%%%%%%'
p1033
g5
tp1034
F-0.3638087624349035
s(S'%%%%%%%\n%     %\n%     %\n%     %\n% p   %\n%.G   %\n%%%%%%%'
p1035
g2
tp1036
F0.0
s(S'%%%%%%%\n%     %\n%     %\n%     %\n% p   %\n%.G   %\n%%%%%%%'
p1037
g10
tp1038
F-0.05
s(S'%%%%%%%\n%    G%\n%     %\n%     %\n%     %\n%.  p %\n%%%%%%%'
p1039
g13
tp1040
F0.029763421875000057
s(S'%%%%%%%\n%     %\n%     %\n%  p  %\n%G    %\n%.    %\n%%%%%%%'
p1041
g13
tp1042
F0.36609614271712215
s(S'%%%%%%%\n%     %\n% p  G%\n%     %\n%     %\n%.    %\n%%%%%%%'
p1043
g2
tp1044
F-0.42294282462228106
s(S'%%%%%%%\n%p    %\n%     %\n%     %\n%     %\n%.  G %\n%%%%%%%'
p1045
g2
tp1046
F-0.36111800891020185
s(S'%%%%%%%\n%     %\n%     %\n%     %\n%G    %\n%.   p%\n%%%%%%%'
p1047
g10
tp1048
F-0.45046064446569445
s(S'%%%%%%%\n%     %\n%     %\n%  pG %\n%     %\n%.    %\n%%%%%%%'
p1049
g10
tp1050
F-0.31387052819910904
s(S'%%%%%%%\n%p    %\n%     %\n%     %\n%  G  %\n%.    %\n%%%%%%%'
p1051
g2
tp1052
F-0.2915267763723907
s(S'%%%%%%%\n%     %\n%     %\n%     %\n%     %\n%Gp   %\n%%%%%%%'
p1053
g13
tp1054
F0.0
s(S'%%%%%%%\n%     %\n%     %\n% p  G%\n%     %\n%.    %\n%%%%%%%'
p1055
g10
tp1056
F-0.14939522595664065
s(S'%%%%%%%\n%     %\n%    p%\n%     %\n%   G %\n%.    %\n%%%%%%%'
p1057
g5
tp1058
F-1.0629394069636875
s(S'%%%%%%%\n%     %\n%     %\n%     %\n%    G%\n%. p  %\n%%%%%%%'
p1059
g2
tp1060
F-0.07393736700407473
s(S'%%%%%%%\n%     %\n%    G%\n%p    %\n%     %\n%.    %\n%%%%%%%'
p1061
g5
tp1062
F139.5246835518048
s(S'%%%%%%%\n%   G %\n%     %\n%     %\n% p   %\n%.    %\n%%%%%%%'
p1063
g13
tp1064
F69.72603603919006
s(S'%%%%%%%\n%  G  %\n%     %\n%   p %\n%     %\n%.    %\n%%%%%%%'
p1065
g2
tp1066
F-1.0951174295070556
s(S'%%%%%%%\n%p    %\n%     %\n% G   %\n%     %\n%.    %\n%%%%%%%'
p1067
g5
tp1068
F0.3119888196191525
s(S'%%%%%%%\n%     %\n% p   %\n% G   %\n%     %\n%.    %\n%%%%%%%'
p1069
g10
tp1070
F-0.36428868363963823
s(S'%%%%%%%\n% G   %\n%     %\n%     %\n%   p %\n%.    %\n%%%%%%%'
p1071
g13
tp1072
F3.9049948088743998
s(S'%%%%%%%\n%     %\n% Gp  %\n%     %\n%     %\n%.    %\n%%%%%%%'
p1073
g5
tp1074
F2.4150974505500766
s(S'%%%%%%%\n%p  G %\n%     %\n%     %\n%     %\n%.    %\n%%%%%%%'
p1075
g5
tp1076
F0.009201048703133152
s(S'%%%%%%%\n%     %\n%G    %\n%     %\n% p   %\n%.    %\n%%%%%%%'
p1077
g13
tp1078
F0.0
s(S'%%%%%%%\n%     %\n%     %\n%     %\n%G  p %\n%.    %\n%%%%%%%'
p1079
g5
tp1080
F-0.4292472568274944
s(S'%%%%%%%\n%     %\n%     %\n%  G  %\n%     %\n%.p   %\n%%%%%%%'
p1081
g2
tp1082
F0.2091338125000001
s(S'%%%%%%%\n%G    %\n%  p  %\n%     %\n%     %\n%.    %\n%%%%%%%'
p1083
g13
tp1084
F-0.394861211507226
s(S'%%%%%%%\n%G    %\n%     %\n%     %\n%    p%\n%.    %\n%%%%%%%'
p1085
g5
tp1086
F-0.286570777450182
s(S'%%%%%%%\n%p    %\n%     %\n%     %\n%G    %\n%.    %\n%%%%%%%'
p1087
g2
tp1088
F-0.37614057946653967
s(S'%%%%%%%\n%     %\n%  p  %\n%    G%\n%     %\n%.    %\n%%%%%%%'
p1089
g5
tp1090
F0.22420511967099976
s(S'%%%%%%%\n%     %\n%     %\n%  G  %\n%     %\n%.p   %\n%%%%%%%'
p1091
g13
tp1092
F687.1500000000002
s(S'%%%%%%%\n%p    %\n%     %\n%     %\n%    G%\n%.    %\n%%%%%%%'
p1093
g5
tp1094
F-0.1849304076706945
s(S'%%%%%%%\n%   G %\n%     %\n%     %\n%     %\n%.   p%\n%%%%%%%'
p1095
g13
tp1096
F-0.3148405751328125
s(S'%%%%%%%\n% p   %\n%   G %\n%     %\n%     %\n%.    %\n%%%%%%%'
p1097
g2
tp1098
F-0.6901102193846079
s(S'%%%%%%%\n%     %\n%     %\n%     %\n%     %\n%.G  p%\n%%%%%%%'
p1099
g10
tp1100
F-0.4593813088471508
s(S'%%%%%%%\n%     %\n%     %\n%   p %\n%     %\n%.   G%\n%%%%%%%'
p1101
g13
tp1102
F-0.2646317495956346
s(S'%%%%%%%\n%     %\n%p    %\n%     %\n%     %\n%.   G%\n%%%%%%%'
p1103
g5
tp1104
F2.7299550125429697
s(S'%%%%%%%\n%    p%\n%     %\n% G   %\n%     %\n%.    %\n%%%%%%%'
p1105
g13
tp1106
F-1.6592293143271888
s(S'%%%%%%%\n%   p %\n%     %\n%     %\n%   G %\n%.    %\n%%%%%%%'
p1107
g13
tp1108
F-0.9259715358664167
s(S'%%%%%%%\n%     %\n%     %\n%     %\n%    p%\n%. G  %\n%%%%%%%'
p1109
g10
tp1110
F-0.4070345376210041
s(S'%%%%%%%\n%     %\n%     %\n%p  G %\n%     %\n%.    %\n%%%%%%%'
p1111
g10
tp1112
F-0.0975
s(S'%%%%%%%\n%  p  %\n%     %\n%     %\n%  G  %\n%.    %\n%%%%%%%'
p1113
g2
tp1114
F-1.074519463593884
s(S'%%%%%%%\n%     %\n%     %\n%G    %\n%     %\n%.p   %\n%%%%%%%'
p1115
g10
tp1116
F0.0
s(S'%%%%%%%\n%     %\n%     %\n% G   %\n%   p %\n%.    %\n%%%%%%%'
p1117
g13
tp1118
F5.255004102265459
s(S'%%%%%%%\n%     %\n%     %\n%     %\n%     %\n%G  p %\n%%%%%%%'
p1119
g10
tp1120
F-0.2354989045861281
s(S'%%%%%%%\n%     %\n%     %\n%G    %\n%  p  %\n%.    %\n%%%%%%%'
p1121
g5
tp1122
F13.051024315210496
s(S'%%%%%%%\n% G   %\n%     %\n%     %\n% p   %\n%.    %\n%%%%%%%'
p1123
g10
tp1124
F0.0
s(S'%%%%%%%\n%     %\n%     %\n%     %\n%    G%\n%.   p%\n%%%%%%%'
p1125
g13
tp1126
F-0.49163289197537163
s(S'%%%%%%%\n%     %\n%     %\n%     %\n%   p %\n%.G   %\n%%%%%%%'
p1127
g10
tp1128
F-0.6373941133966022
s(S'%%%%%%%\n%     %\n%     %\n%  p  %\n%    G%\n%.    %\n%%%%%%%'
p1129
g2
tp1130
F-0.22385875130674693
s(S'%%%%%%%\n%     %\n%pG   %\n%     %\n%     %\n%.    %\n%%%%%%%'
p1131
g5
tp1132
F8.68932896326907
s(S'%%%%%%%\n%     %\n%     %\n%     %\n%     %\n%. pG %\n%%%%%%%'
p1133
g2
tp1134
F-25.05
s(S'%%%%%%%\n%     %\n% G   %\n%     %\n%    p%\n%.    %\n%%%%%%%'
p1135
g10
tp1136
F-0.7318765437160629
s(S'%%%%%%%\n%     %\n%     %\n%     %\n%   G %\n%.  p %\n%%%%%%%'
p1137
g13
tp1138
F13.949428465061233
s(S'%%%%%%%\n%     %\n%     %\n%     %\n%G    %\n%.   p%\n%%%%%%%'
p1139
g13
tp1140
F0.09557532514064501
s(S'%%%%%%%\n%   G %\n%   p %\n%     %\n%     %\n%.    %\n%%%%%%%'
p1141
g10
tp1142
F-25.05
s(S'%%%%%%%\n%   p %\n%     %\n%     %\n%   G %\n%.    %\n%%%%%%%'
p1143
g5
tp1144
F-0.9813400704945473
s(S'%%%%%%%\n%     %\n%     %\n%   G %\n% p   %\n%.    %\n%%%%%%%'
p1145
g13
tp1146
F0.0
s(S'%%%%%%%\n%    G%\n%     %\n%     %\n%p    %\n%.    %\n%%%%%%%'
p1147
g10
tp1148
F37.26878518682047
s(S'%%%%%%%\n%   p %\n%     %\n%G    %\n%     %\n%.    %\n%%%%%%%'
p1149
g13
tp1150
F-0.808146937914843
s(S'%%%%%%%\n%G    %\n%     %\n% p   %\n%     %\n%.    %\n%%%%%%%'
p1151
g13
tp1152
F0.15579375000000006
s(S'%%%%%%%\n%     %\n%     %\n%     %\n%     %\n%. Gp %\n%%%%%%%'
p1153
g2
tp1154
F-0.7193279953355884
s(S'%%%%%%%\n%     %\n%   G %\n%     %\n%  p  %\n%.    %\n%%%%%%%'
p1155
g13
tp1156
F25.432400254707137
s(S'%%%%%%%\n%G    %\n%p    %\n%     %\n%     %\n%.    %\n%%%%%%%'
p1157
g2
tp1158
F-0.15321125000000002
s(S'%%%%%%%\n%    G%\n%p    %\n%     %\n%     %\n%.    %\n%%%%%%%'
p1159
g10
tp1160
F-0.2285703125
s(S'%%%%%%%\n%    G%\n%     %\n%     %\n%    p%\n%.    %\n%%%%%%%'
p1161
g5
tp1162
F-0.5107087104652324
s(S'%%%%%%%\n%     %\n%     %\n%   p %\n% G   %\n%.    %\n%%%%%%%'
p1163
g5
tp1164
F-0.6603904635707804
s(S'%%%%%%%\n%     %\n%     %\n%     %\n% pG  %\n%.    %\n%%%%%%%'
p1165
g5
tp1166
F-0.05
s(S'%%%%%%%\n%     %\n%     %\n%     %\n%  p  %\n%.   G%\n%%%%%%%'
p1167
g2
tp1168
F-0.05
s(S'%%%%%%%\n%G    %\n%     %\n%     %\n%p    %\n%.    %\n%%%%%%%'
p1169
g10
tp1170
F0.0
s(S'%%%%%%%\n%p  G %\n%     %\n%     %\n%     %\n%.    %\n%%%%%%%'
p1171
g2
tp1172
F-0.3132466945665534
s(S'%%%%%%%\n%     %\n%  p  %\n%     %\n%     %\n%. G  %\n%%%%%%%'
p1173
g2
tp1174
F-0.6261644583658541
s(S'%%%%%%%\n%     %\n%     %\n% p   %\n%     %\n%G    %\n%%%%%%%'
p1175
g5
tp1176
F29.284449262345138
s(S'%%%%%%%\n%     %\n%     %\n% p   %\n% G   %\n%.    %\n%%%%%%%'
p1177
g2
tp1178
F-0.18504663309007097
s(S'%%%%%%%\n%     %\n%     %\n% p   %\n%     %\n%.   G%\n%%%%%%%'
p1179
g5
tp1180
F8.781263873180878
s(S'%%%%%%%\n%     %\n%    G%\n%     %\n% p   %\n%.    %\n%%%%%%%'
p1181
g5
tp1182
F10.58955046141758
s(S'%%%%%%%\n%   G %\n%   p %\n%     %\n%     %\n%.    %\n%%%%%%%'
p1183
g13
tp1184
F-0.7308768751375562
s(S'%%%%%%%\n%     %\n%     %\n%     %\n% G  p%\n%.    %\n%%%%%%%'
p1185
g13
tp1186
F-0.5241661881010259
s(S'%%%%%%%\n%     %\n%     %\n%     %\n% pG  %\n%.    %\n%%%%%%%'
p1187
g13
tp1188
F333.6267911713295
s(S'%%%%%%%\n%     %\n%     %\n%    G%\n%p    %\n%.    %\n%%%%%%%'
p1189
g5
tp1190
F654.0650000000002
s(S'%%%%%%%\n%     %\n%     %\n%p    %\n%    G%\n%.    %\n%%%%%%%'
p1191
g2
tp1192
F-0.04400982871953125
s(S'%%%%%%%\n%     %\n%     %\n%     %\n%  pG %\n%.    %\n%%%%%%%'
p1193
g13
tp1194
F52.554485121722855
s(S'%%%%%%%\n%   G %\n%     %\n%     %\n% p   %\n%.    %\n%%%%%%%'
p1195
g5
tp1196
F0.0
s(S'%%%%%%%\n%   p %\n%     %\n%     %\n%     %\n%. G  %\n%%%%%%%'
p1197
g13
tp1198
F-0.8054538390707688
s(S'%%%%%%%\n%     %\n%   p %\n%   G %\n%     %\n%.    %\n%%%%%%%'
p1199
g10
tp1200
F-1.0336271204807872
s(S'%%%%%%%\n%    p%\n%G   .%\n%     %\n%     %\n%.    %\n%%%%%%%'
p1201
g5
tp1202
F7.500310466351688
s(S'%%%%%%%\n%     %\n%   p %\n%   G %\n%     %\n%.    %\n%%%%%%%'
p1203
g13
tp1204
F-0.7437671825451517
s(S'%%%%%%%\n%     %\n%    p%\n%     %\n%     %\n%G    %\n%%%%%%%'
p1205
g13
tp1206
F-1.0353406026403513
s(S'%%%%%%%\n%pG   %\n%     %\n%     %\n%     %\n%.    %\n%%%%%%%'
p1207
g5
tp1208
F-0.022402225484764643
s(S'%%%%%%%\n%   p %\n% G  .%\n%     %\n%     %\n%.    %\n%%%%%%%'
p1209
g13
tp1210
F0.0
s(S'%%%%%%%\n%     %\n%  G  %\n%     %\n%     %\n%. p  %\n%%%%%%%'
p1211
g10
tp1212
F-0.14915
s(S'%%%%%%%\n%     %\n%     %\n%     %\n%p    %\n%. G  %\n%%%%%%%'
p1213
g2
tp1214
F0.0
s(S'%%%%%%%\n%p    %\n%     %\n%     %\n%     %\n%.  G %\n%%%%%%%'
p1215
g5
tp1216
F-0.026738974434929702
s(S'%%%%%%%\n%     %\n%   pG%\n%     %\n%     %\n%.    %\n%%%%%%%'
p1217
g5
tp1218
F-0.49612663674144797
s(S'%%%%%%%\n%     %\n%     %\n%     %\n% p  G%\n%.    %\n%%%%%%%'
p1219
g13
tp1220
F229.1849089199425
s(S'%%%%%%%\n%     %\n%     %\n%p    %\n%    G%\n%.    %\n%%%%%%%'
p1221
g5
tp1222
F68.93673166675586
s(S'%%%%%%%\n% p   %\n%     %\n%    G%\n%     %\n%.    %\n%%%%%%%'
p1223
g2
tp1224
F-0.40270962437606606
s(S'%%%%%%%\n%     %\n%   p %\n%     %\n%     %\n%.G   %\n%%%%%%%'
p1225
g10
tp1226
F-0.9660872756836896
s(S'%%%%%%%\n%     %\n%     %\n%     %\n%    p%\n%.   G%\n%%%%%%%'
p1227
g5
tp1228
F-25.05
s(S'%%%%%%%\n%     %\n%   p %\n%     %\n%    G%\n%.    %\n%%%%%%%'
p1229
g2
tp1230
F-0.8948555599484761
s(S'%%%%%%%\n%     %\n%     %\n%     %\n% G  p%\n%.    %\n%%%%%%%'
p1231
g10
tp1232
F-0.7127001832862205
s(S'%%%%%%%\n%     %\n%     %\n%   p %\n%   G %\n%.    %\n%%%%%%%'
p1233
g13
tp1234
F0.591765366084986
s(S'%%%%%%%\n%     %\n%     %\n% p   %\n%   G %\n%.    %\n%%%%%%%'
p1235
g13
tp1236
F0.23616903289118663
s(S'%%%%%%%\n%     %\n% p   %\n%   G %\n%     %\n%.    %\n%%%%%%%'
p1237
g10
tp1238
F-0.21047020349163453
s(S'%%%%%%%\n%     %\n%G  p %\n%     %\n%     %\n%.    %\n%%%%%%%'
p1239
g5
tp1240
F-0.7396259254206481
s(S'%%%%%%%\n%     %\n%     %\n%    G%\n%  p  %\n%.    %\n%%%%%%%'
p1241
g2
tp1242
F-0.2068979808649065
s(S'%%%%%%%\n%     %\n%     %\n%p    %\n%  G  %\n%.    %\n%%%%%%%'
p1243
g2
tp1244
F12.945428491277973
s(S'%%%%%%%\n%     %\n%     %\n% Gp  %\n%     %\n%.    %\n%%%%%%%'
p1245
g5
tp1246
F10.51973200579853
s(S'%%%%%%%\n%     %\n%   p %\n%   G %\n%     %\n%.    %\n%%%%%%%'
p1247
g2
tp1248
F-1.1626419006756663
s(S'%%%%%%%\n%     %\n%    p%\n%     %\n%     %\n%G    %\n%%%%%%%'
p1249
g5
tp1250
F-0.8031827376400056
s(S'%%%%%%%\n%     %\n%p    %\n%     %\n% G   %\n%.    %\n%%%%%%%'
p1251
g2
tp1252
F-0.4337710561652246
s(S'%%%%%%%\n%     %\n%     %\n%p    %\n%    G%\n%.    %\n%%%%%%%'
p1253
g10
tp1254
F-0.23790583039062502
s(S'%%%%%%%\n% G   %\n%     %\n%     %\n% p   %\n%.    %\n%%%%%%%'
p1255
g2
tp1256
F-0.05
s(S'%%%%%%%\n% p   %\n%     %\n%  G  %\n%     %\n%.    %\n%%%%%%%'
p1257
g5
tp1258
F-0.15490593549072285
s(S'%%%%%%%\n%     %\n%   p %\n%     %\n%    G%\n%.    %\n%%%%%%%'
p1259
g10
tp1260
F-0.962312393260817
s(S'%%%%%%%\n%  p  %\n%  G  %\n%     %\n%     %\n%.    %\n%%%%%%%'
p1261
g13
tp1262
F-0.8531431273098975
s(S'%%%%%%%\n%     %\n%  G  %\n%    p%\n%     %\n%.    %\n%%%%%%%'
p1263
g5
tp1264
F-1.1372938278583837
s(S'%%%%%%%\n%     %\n%     %\n%pG   %\n%     %\n%.    %\n%%%%%%%'
p1265
g2
tp1266
F-25.05
s(S'%%%%%%%\n%     %\n%     %\n% p   %\n% G   %\n%.    %\n%%%%%%%'
p1267
g10
tp1268
F-0.23652236412221972
s(S'%%%%%%%\n%  G  %\n%    p%\n%     %\n%     %\n%.    %\n%%%%%%%'
p1269
g5
tp1270
F-1.122465990078685
s(S'%%%%%%%\n% p   %\n%     %\n%     %\n%     %\n%. G  %\n%%%%%%%'
p1271
g13
tp1272
F-0.5275864002445431
s(S'%%%%%%%\n%     %\n%   p %\n%     %\n%G    %\n%.    %\n%%%%%%%'
p1273
g5
tp1274
F-0.9637255206465561
s(S'%%%%%%%\n% p   %\n%     %\n%     %\n%     %\n%G    %\n%%%%%%%'
p1275
g13
tp1276
F-0.31052949334875746
s(S'%%%%%%%\n%     %\n%     %\n%     %\n%     %\n%.  pG%\n%%%%%%%'
p1277
g10
tp1278
F-0.19828630744821912
s(S'%%%%%%%\n%     %\n%     %\n%     %\n%     %\n%Gp   %\n%%%%%%%'
p1279
g10
tp1280
F12.650716415513214
s(S'%%%%%%%\n%     %\n%  p  %\n%  G  %\n%     %\n%.    %\n%%%%%%%'
p1281
g13
tp1282
F-0.12223618174967171
s(S'%%%%%%%\n%     %\n%     %\n%  pG %\n%     %\n%.    %\n%%%%%%%'
p1283
g13
tp1284
F14.714091271442816
s(S'%%%%%%%\n%  pG %\n%     %\n%     %\n%     %\n%.    %\n%%%%%%%'
p1285
g5
tp1286
F-0.7241110412667445
s(S'%%%%%%%\n%     %\n%     %\n%     %\n%G  p %\n%.    %\n%%%%%%%'
p1287
g2
tp1288
F-0.45241466647038375
s(S'%%%%%%%\n%     %\n%   G %\n%     %\n%p    %\n%.    %\n%%%%%%%'
p1289
g10
tp1290
F-0.0975
s(S'%%%%%%%\n%     %\n%     %\n% p   %\n%     %\n%.   G%\n%%%%%%%'
p1291
g13
tp1292
F-0.05
s(S'%%%%%%%\n%  G  %\n%     %\n%   p %\n%     %\n%.    %\n%%%%%%%'
p1293
g5
tp1294
F-0.48047692365850947
s(S'%%%%%%%\n% p   %\n%     %\n%     %\n%     %\n%G    %\n%%%%%%%'
p1295
g5
tp1296
F-0.25319461964737244
s(S'%%%%%%%\n%     %\n%     %\n%     %\n% p   %\n%.G   %\n%%%%%%%'
p1297
g13
tp1298
F306.7400541793871
s(S'%%%%%%%\n%     %\n%     %\n%   G %\n% p   %\n%.    %\n%%%%%%%'
p1299
g5
tp1300
F293.5030746902064
s(S'%%%%%%%\n%  p  %\n%G    %\n%     %\n%     %\n%.    %\n%%%%%%%'
p1301
g13
tp1302
F-0.8107058976110679
s(S'%%%%%%%\n%    G%\n%     %\n%     %\n%p    %\n%.    %\n%%%%%%%'
p1303
g2
tp1304
F0.0855110667535938
s(S'%%%%%%%\n% G   %\n%     %\n%    p%\n%     %\n%.    %\n%%%%%%%'
p1305
g5
tp1306
F-1.1392978552850355
s(S'%%%%%%%\n%   G %\n%     %\n%     %\n%     %\n%. p  %\n%%%%%%%'
p1307
g2
tp1308
F-0.14711375
s(S'%%%%%%%\n%    p%\n%    .%\n% G   %\n%     %\n%.    %\n%%%%%%%'
p1309
g13
tp1310
F0.0
s(S'%%%%%%%\n% G   %\n%     %\n%  p  %\n%     %\n%.    %\n%%%%%%%'
p1311
g5
tp1312
F5.475678558277211
s(S'%%%%%%%\n%G    %\n%     %\n%   p %\n%     %\n%.    %\n%%%%%%%'
p1313
g2
tp1314
F-0.7562511494053175
s(S'%%%%%%%\n%  G  %\n%  p  %\n%     %\n%     %\n%.    %\n%%%%%%%'
p1315
g10
tp1316
F-25.05
s(S'%%%%%%%\n%     %\n%   G %\n%     %\n%     %\n%.  p %\n%%%%%%%'
p1317
g2
tp1318
F-0.6751432342806197
s(S'%%%%%%%\n%     %\n%  G  %\n%     %\n%     %\n%. p  %\n%%%%%%%'
p1319
g13
tp1320
F269.4311207508085
s(S'%%%%%%%\n% G  p%\n%     %\n%     %\n%     %\n%.    %\n%%%%%%%'
p1321
g13
tp1322
F-1.7032912817602774
s(S'%%%%%%%\n%     %\n% p  G%\n%     %\n%     %\n%.    %\n%%%%%%%'
p1323
g13
tp1324
F0.4056624337241791
s(S'%%%%%%%\n%   G %\n%   p %\n%     %\n%     %\n%.    %\n%%%%%%%'
p1325
g5
tp1326
F-0.8412901077344063
s(S'%%%%%%%\n%     %\n%     %\n%   p %\n%     %\n%. G  %\n%%%%%%%'
p1327
g13
tp1328
F0.012970701329492462
s(S'%%%%%%%\n%   p %\n%     %\n%     %\n%     %\n%.   G%\n%%%%%%%'
p1329
g2
tp1330
F-0.5417102780373165
s(S'%%%%%%%\n%     %\n%  p  %\n%    G%\n%     %\n%.    %\n%%%%%%%'
p1331
g10
tp1332
F-0.49110363231333365
s(S'%%%%%%%\n%     %\n%     %\n%G  p %\n%     %\n%.    %\n%%%%%%%'
p1333
g2
tp1334
F-0.7308320673240524
s(S'%%%%%%%\n%    G%\n%  p  %\n%     %\n%     %\n%.    %\n%%%%%%%'
p1335
g10
tp1336
F-0.35174091344459074
s(S'%%%%%%%\n%     %\n% p   %\n%   G %\n%     %\n%.    %\n%%%%%%%'
p1337
g2
tp1338
F-0.4744674681924846
s(S'%%%%%%%\n%     %\n%G    %\n%     %\n% p   %\n%.    %\n%%%%%%%'
p1339
g2
tp1340
F0.0
s(S'%%%%%%%\n%     %\n% p   %\n%     %\n%     %\n%.  G %\n%%%%%%%'
p1341
g5
tp1342
F0.41364659333385606
s(S'%%%%%%%\n%     %\n%     %\n%    p%\n%    G%\n%.    %\n%%%%%%%'
p1343
g5
tp1344
F-25.05
s(S'%%%%%%%\n%    p%\n%     %\n%   G %\n%     %\n%.    %\n%%%%%%%'
p1345
g13
tp1346
F-1.2394721774128918
s(S'%%%%%%%\n%   Gp%\n%     %\n%     %\n%     %\n%.    %\n%%%%%%%'
p1347
g5
tp1348
F-1.3464772053678948
s(S'%%%%%%%\n%  p  %\n%     %\n%     %\n%     %\n%.G   %\n%%%%%%%'
p1349
g2
tp1350
F-0.8508101940029075
s(S'%%%%%%%\n%     %\n%     %\n%   p %\n% G   %\n%.    %\n%%%%%%%'
p1351
g13
tp1352
F0.9513413816307912
s(S'%%%%%%%\n%     %\n%   p %\n%     %\n%  G  %\n%.    %\n%%%%%%%'
p1353
g5
tp1354
F-0.8365503063646138
s(S'%%%%%%%\n% p   %\n%     %\n%  G  %\n%     %\n%.    %\n%%%%%%%'
p1355
g2
tp1356
F-0.6447979635898152
s(S'%%%%%%%\n%  p  %\n%     %\n%     %\n%     %\n%.  G %\n%%%%%%%'
p1357
g2
tp1358
F-0.7914975773592569
s(S'%%%%%%%\n%     %\n%     %\n%     %\n%  G  %\n%. p  %\n%%%%%%%'
p1359
g10
tp1360
F-25.05
s(S'%%%%%%%\n%   p %\n%     %\n%     %\n%     %\n%. G  %\n%%%%%%%'
p1361
g5
tp1362
F-0.7934853777417193
s(S'%%%%%%%\n%     %\n%G    %\n%p    %\n%     %\n%.    %\n%%%%%%%'
p1363
g5
tp1364
F98.97920099721574
s(S'%%%%%%%\n%     %\n%p    %\n%     %\n%     %\n%.   G%\n%%%%%%%'
p1365
g10
tp1366
F-0.1582810452734375
s(S'%%%%%%%\n%     %\n%     %\n%G    %\n%     %\n%.p   %\n%%%%%%%'
p1367
g13
tp1368
F486.0313749999999
s(S'%%%%%%%\n%     %\n%     %\n%     %\n% G   %\n%.  p %\n%%%%%%%'
p1369
g2
tp1370
F-0.4162201602369081
s(S'%%%%%%%\n%     %\n% pG  %\n%     %\n%     %\n%.    %\n%%%%%%%'
p1371
g5
tp1372
F5.562778611531276
s(S'%%%%%%%\n%     %\n%     %\n%     %\n%     %\n%G  p %\n%%%%%%%'
p1373
g2
tp1374
F-0.21730267856928856
s(S'%%%%%%%\n%     %\n%     %\n%  G  %\n%  p  %\n%.    %\n%%%%%%%'
p1375
g10
tp1376
F-25.05
s(S'%%%%%%%\n%  G  %\n%     %\n%     %\n%  p  %\n%.    %\n%%%%%%%'
p1377
g2
tp1378
F-0.05698131546875001
s(S'%%%%%%%\n%G    %\n%     %\n%     %\n%    p%\n%.    %\n%%%%%%%'
p1379
g10
tp1380
F-0.6628531876353184
s(S'%%%%%%%\n%    G%\n%  p  %\n%     %\n%     %\n%.    %\n%%%%%%%'
p1381
g13
tp1382
F-0.14998888620559123
s(S'%%%%%%%\n% G   %\n%     %\n%     %\n%     %\n%. p  %\n%%%%%%%'
p1383
g2
tp1384
F0.0
s(S'%%%%%%%\n%     %\n%     %\n%  G  %\n%p    %\n%.    %\n%%%%%%%'
p1385
g2
tp1386
F-0.0975
s(S'%%%%%%%\n%   G %\n%     %\n%     %\n%   p %\n%.    %\n%%%%%%%'
p1387
g5
tp1388
F1.278639244681614
s(S'%%%%%%%\n%     %\n%     %\n% p  G%\n%     %\n%.    %\n%%%%%%%'
p1389
g2
tp1390
F-0.11936571788520131
s(S'%%%%%%%\n%     %\n%   G %\n%     %\n%p    %\n%.    %\n%%%%%%%'
p1391
g5
tp1392
F508.9999999999999
s(S'%%%%%%%\n%     %\n%G    %\n%p    %\n%     %\n%.    %\n%%%%%%%'
p1393
g10
tp1394
F-25.05
s(S'%%%%%%%\n%     %\n%     %\n%     %\n%  Gp %\n%.    %\n%%%%%%%'
p1395
g10
tp1396
F-0.6362939782934101
s(S'%%%%%%%\n%     %\n%     %\n%  p  %\n%G    %\n%.    %\n%%%%%%%'
p1397
g2
tp1398
F-0.5446038473908054
s(S'%%%%%%%\n%     %\n%     %\n%     %\n%   p %\n%.G   %\n%%%%%%%'
p1399
g13
tp1400
F0.18947316988647223
s(S'%%%%%%%\n%     %\n% p  G%\n%     %\n%     %\n%.    %\n%%%%%%%'
p1401
g10
tp1402
F-0.3769898063219702
s(S'%%%%%%%\n%   G %\n%     %\n%p    %\n%     %\n%.    %\n%%%%%%%'
p1403
g5
tp1404
F133.5603740053681
s(S'%%%%%%%\n% p   %\n%     %\n%     %\n%   G %\n%.    %\n%%%%%%%'
p1405
g2
tp1406
F-0.5774399557242326
s(S'%%%%%%%\n%     %\n%     %\n%     %\n%     %\n%.p  G%\n%%%%%%%'
p1407
g13
tp1408
F76.35000000000001
s(S'%%%%%%%\n%    G%\n%     %\n%   p %\n%     %\n%.    %\n%%%%%%%'
p1409
g5
tp1410
F-0.3306776476440218
s(S'%%%%%%%\n% G   %\n% p   %\n%     %\n%     %\n%.    %\n%%%%%%%'
p1411
g13
tp1412
F0.21240260621901635
s(S'%%%%%%%\n%     %\n%     %\n%   p %\n%     %\n%G    %\n%%%%%%%'
p1413
g5
tp1414
F-0.3971951190852634
s(S'%%%%%%%\n%     %\n%  G  %\n%     %\n%   p %\n%.    %\n%%%%%%%'
p1415
g13
tp1416
F7.5094143142541
s(S'%%%%%%%\n%     %\n%     %\n%   Gp%\n%     %\n%.    %\n%%%%%%%'
p1417
g10
tp1418
F-1.0991533685094736
s(S'%%%%%%%\n%     %\n%     %\n%     %\n%  p  %\n%. G  %\n%%%%%%%'
p1419
g13
tp1420
F56.17984844770279
s(S'%%%%%%%\n%   G %\n%     %\n%    p%\n%     %\n%.    %\n%%%%%%%'
p1421
g10
tp1422
F-1.0977553549321881
s(S'%%%%%%%\n%     %\n%    p%\n%  G  %\n%     %\n%.    %\n%%%%%%%'
p1423
g13
tp1424
F-1.2974021180774187
s(S'%%%%%%%\n%     %\n%   p %\n% G   %\n%     %\n%.    %\n%%%%%%%'
p1425
g5
tp1426
F-1.147547966725755
s(S'%%%%%%%\n%G    %\n%     %\n%     %\n%    p%\n%.    %\n%%%%%%%'
p1427
g13
tp1428
F-0.2139291573556319
s(S'%%%%%%%\n%     %\n%     %\n%   p %\n%     %\n%.   G%\n%%%%%%%'
p1429
g2
tp1430
F-0.30882501231624393
s(S'%%%%%%%\n%p    %\n%     %\n%     %\n%     %\n%.G   %\n%%%%%%%'
p1431
g5
tp1432
F-0.04158311519474689
s(S'%%%%%%%\n%     %\n%  G  %\n%p    %\n%     %\n%.    %\n%%%%%%%'
p1433
g5
tp1434
F88.9733748886363
s(S'%%%%%%%\n%    p%\n%    G%\n%     %\n%     %\n%.    %\n%%%%%%%'
p1435
g13
tp1436
F-1.2780988173965346
s(S'%%%%%%%\n%p    %\n%    G%\n%     %\n%     %\n%.    %\n%%%%%%%'
p1437
g5
tp1438
F-0.3600011844305008
s(S'%%%%%%%\n%     %\n% p   %\n%     %\n%G    %\n%.    %\n%%%%%%%'
p1439
g2
tp1440
F-0.4191988444187893
s(S'%%%%%%%\n%     %\n%     %\n%     %\n% p  G%\n%.    %\n%%%%%%%'
p1441
g10
tp1442
F-0.18988125
s(S'%%%%%%%\n%     %\n% G   %\n%     %\n%     %\n%.  p %\n%%%%%%%'
p1443
g13
tp1444
F16.665712377782206
s(S'%%%%%%%\n%     %\n%  p  %\n%G    %\n%     %\n%.    %\n%%%%%%%'
p1445
g10
tp1446
F-0.6543152944958612
s(S'%%%%%%%\n%     %\n%     %\n%     %\n%  pG %\n%.    %\n%%%%%%%'
p1447
g10
tp1448
F-0.4036670360111212
s(S'%%%%%%%\n%     %\n%   p %\n%     %\n%    G%\n%.    %\n%%%%%%%'
p1449
g13
tp1450
F-0.8261021803942684
s(S'%%%%%%%\n%    G%\n%p    %\n%     %\n%     %\n%.    %\n%%%%%%%'
p1451
g2
tp1452
F-0.10188749999999999
s(S'%%%%%%%\n%   p %\n%     %\n%     %\n%     %\n%G    %\n%%%%%%%'
p1453
g13
tp1454
F-0.860769847352088
s(S'%%%%%%%\n%     %\n%     %\n%     %\n%   Gp%\n%.    %\n%%%%%%%'
p1455
g13
tp1456
F-25.05
s(S'%%%%%%%\n%     %\n%     %\n%     %\n%G    %\n%. p  %\n%%%%%%%'
p1457
g10
tp1458
F-0.052387400468750005
s(S'%%%%%%%\n%   G %\n%     %\n%  p  %\n%     %\n%.    %\n%%%%%%%'
p1459
g10
tp1460
F-0.34331067701021556
s(S'%%%%%%%\n%   pG%\n%     %\n%     %\n%     %\n%.    %\n%%%%%%%'
p1461
g2
tp1462
F-25.05
s(S'%%%%%%%\n%    G%\n%     %\n%     %\n%  p  %\n%.    %\n%%%%%%%'
p1463
g10
tp1464
F-0.3176364208236324
s(S'%%%%%%%\n%     %\n%     %\n%G    %\n%    p%\n%.    %\n%%%%%%%'
p1465
g5
tp1466
F-0.44373787068124654
s(S'%%%%%%%\n%     %\n%     %\n%     %\n%  p  %\n%G    %\n%%%%%%%'
p1467
g5
tp1468
F-0.052465728038732666
s(S'%%%%%%%\n%G    %\n%     %\n%   p %\n%     %\n%.    %\n%%%%%%%'
p1469
g5
tp1470
F-0.3533949953215928
s(S'%%%%%%%\n%     %\n%     %\n%    p%\n%    G%\n%.    %\n%%%%%%%'
p1471
g13
tp1472
F-0.6866738358936139
s(S'%%%%%%%\n%    p%\n%     %\n%     %\n%    G%\n%.    %\n%%%%%%%'
p1473
g5
tp1474
F-0.7167125612634565
s(S'%%%%%%%\n%   p %\n% G  .%\n%     %\n%     %\n%.    %\n%%%%%%%'
p1475
g2
tp1476
F-0.05
s(S'%%%%%%%\n%     %\n%     %\n%   p %\n%   G %\n%.    %\n%%%%%%%'
p1477
g10
tp1478
F-0.787892857124864
s(S'%%%%%%%\n%     %\n%     %\n%     %\n%   Gp%\n%.    %\n%%%%%%%'
p1479
g10
tp1480
F-0.9453141409055726
s(S'%%%%%%%\n%  G  %\n%p    %\n%     %\n%     %\n%.    %\n%%%%%%%'
p1481
g2
tp1482
F-0.2422382779578166
s(S'%%%%%%%\n%     %\n%     %\n%   p %\n%     %\n%.   G%\n%%%%%%%'
p1483
g10
tp1484
F-0.5284724265583952
s(S'%%%%%%%\n%     %\n%     %\n%    G%\n%     %\n%.p   %\n%%%%%%%'
p1485
g10
tp1486
F-0.05
s(S'%%%%%%%\n%G    %\n%     %\n%     %\n%     %\n%.p   %\n%%%%%%%'
p1487
g13
tp1488
F432.6499999999999
s(S'%%%%%%%\n% G   %\n%     %\n%  p  %\n%     %\n%.    %\n%%%%%%%'
p1489
g2
tp1490
F-0.4650030529937536
s(S'%%%%%%%\n%     %\n%   pG%\n%     %\n%     %\n%.    %\n%%%%%%%'
p1491
g10
tp1492
F-0.7757698056909201
s(S'%%%%%%%\n%     %\n%     %\n%     %\n%   pG%\n%.    %\n%%%%%%%'
p1493
g5
tp1494
F-0.05469412022786266
s(S'%%%%%%%\n%    G%\n%     %\n%   p %\n%     %\n%.    %\n%%%%%%%'
p1495
g10
tp1496
F-0.3214779996819134
s(S'%%%%%%%\n% G  p%\n%    .%\n%     %\n%     %\n%.    %\n%%%%%%%'
p1497
g13
tp1498
F0.0
s(S'%%%%%%%\n% G   %\n%     %\n%     %\n%     %\n%. p  %\n%%%%%%%'
p1499
g13
tp1500
F219.6960795771162
s(S'%%%%%%%\n%     %\n%     %\n%  p  %\n%  G  %\n%.    %\n%%%%%%%'
p1501
g5
tp1502
F-25.05
s(S'%%%%%%%\n%     %\n% G   %\n% p   %\n%     %\n%.    %\n%%%%%%%'
p1503
g5
tp1504
F31.75370053801232
s(S'%%%%%%%\n%   p %\n%     %\n%     %\n%     %\n%G    %\n%%%%%%%'
p1505
g5
tp1506
F-0.8125349226628098
s(S'%%%%%%%\n%     %\n% p   %\n%     %\n%    G%\n%.    %\n%%%%%%%'
p1507
g5
tp1508
F-0.1962442658324451
s(S'%%%%%%%\n%     %\n%     %\n%   G %\n%     %\n%. p  %\n%%%%%%%'
p1509
g2
tp1510
F-0.15514034375
s(S'%%%%%%%\n%     %\n%     %\n%     %\n%Gp   %\n%.    %\n%%%%%%%'
p1511
g5
tp1512
F47.880170388984375
s(S'%%%%%%%\n%     %\n%     %\n%     %\n%G  p %\n%.    %\n%%%%%%%'
p1513
g13
tp1514
F1.8269461063064145
s(S'%%%%%%%\n%     %\n%  G  %\n%  p  %\n%     %\n%.    %\n%%%%%%%'
p1515
g10
tp1516
F-25.05
s(S'%%%%%%%\n%     %\n%  p  %\n%G    %\n%     %\n%.    %\n%%%%%%%'
p1517
g5
tp1518
F-0.3468965285336385
s(S'%%%%%%%\n% p   %\n%     %\n%     %\n%     %\n%. G  %\n%%%%%%%'
p1519
g2
tp1520
F-0.5871621941328274
s(S'%%%%%%%\n%     %\n%     %\n%     %\n%     %\n%.G  p%\n%%%%%%%'
p1521
g13
tp1522
F-0.3115750780273772
s(S'%%%%%%%\n%  G  %\n%     %\n%     %\n%p    %\n%.    %\n%%%%%%%'
p1523
g10
tp1524
F0.0
s(S'%%%%%%%\n%  G  %\n%  p  %\n%     %\n%     %\n%.    %\n%%%%%%%'
p1525
g13
tp1526
F-0.30754954615910873
s(S'%%%%%%%\n%     %\n%  p  %\n%  G  %\n%     %\n%.    %\n%%%%%%%'
p1527
g5
tp1528
F-25.05
s(S'%%%%%%%\n%     %\n%     %\n%     %\n%G  p %\n%.    %\n%%%%%%%'
p1529
g10
tp1530
F-0.3553009191780888
s(S'%%%%%%%\n%p    %\n%     %\n%     %\n%     %\n%.G   %\n%%%%%%%'
p1531
g2
tp1532
F-0.42201003150343264
s(S'%%%%%%%\n% p   %\n%     %\n%     %\n% G   %\n%.    %\n%%%%%%%'
p1533
g13
tp1534
F-0.48915079243058257
s(S'%%%%%%%\n% G   %\n%     %\n%     %\n%     %\n%. p  %\n%%%%%%%'
p1535
g10
tp1536
F-0.05
s(S'%%%%%%%\n%     %\n%    G%\n%p    %\n%     %\n%.    %\n%%%%%%%'
p1537
g2
tp1538
F-0.18549375
s(S'%%%%%%%\n%   p %\n%     %\n%     %\n% G   %\n%.    %\n%%%%%%%'
p1539
g5
tp1540
F-1.3529174683605856
s(S'%%%%%%%\n%     %\n%     %\n%   G %\n%   p %\n%.    %\n%%%%%%%'
p1541
g5
tp1542
F2.274165076604229
s(S'%%%%%%%\n%G  p %\n%    .%\n%     %\n%     %\n%.    %\n%%%%%%%'
p1543
g13
tp1544
F0.0
s(S'%%%%%%%\n%     %\n%     %\n%    p%\n%     %\n%.G   %\n%%%%%%%'
p1545
g13
tp1546
F-0.8463875344014219
s(S'%%%%%%%\n%     %\n%     %\n% p   %\n%     %\n%. G  %\n%%%%%%%'
p1547
g5
tp1548
F-0.0975
s(S'%%%%%%%\n%p    %\n%  G  %\n%     %\n%     %\n%.    %\n%%%%%%%'
p1549
g2
tp1550
F-0.5532462102967137
s(S'%%%%%%%\n%     %\n%  p  %\n%     %\n%     %\n%G    %\n%%%%%%%'
p1551
g13
tp1552
F-0.5120551312331391
s(S'%%%%%%%\n%     %\n%     %\n% G  p%\n%     %\n%.    %\n%%%%%%%'
p1553
g5
tp1554
F-1.2266989787067515
s(S'%%%%%%%\n%     %\n%     %\n%G    %\n%     %\n%.  p %\n%%%%%%%'
p1555
g13
tp1556
F0.634823927261621
s(S'%%%%%%%\n%G    %\n%p    %\n%     %\n%     %\n%.    %\n%%%%%%%'
p1557
g5
tp1558
F8.546744017603631
s(S'%%%%%%%\n% G  p%\n%    .%\n%     %\n%     %\n%.    %\n%%%%%%%'
p1559
g5
tp1560
F0.8636363626992188
s(S'%%%%%%%\n%     %\n% p  G%\n%     %\n%     %\n%.    %\n%%%%%%%'
p1561
g5
tp1562
F1.0228904804125676
s(S'%%%%%%%\n%   pG%\n%     %\n%     %\n%     %\n%.    %\n%%%%%%%'
p1563
g13
tp1564
F-0.7497366386073924
s(S'%%%%%%%\n%     %\n%  G  %\n%     %\n%   p %\n%.    %\n%%%%%%%'
p1565
g5
tp1566
F-0.35527227339843753
s(S'%%%%%%%\n%     %\n%   G %\n%     %\n%  p  %\n%.    %\n%%%%%%%'
p1567
g2
tp1568
F-0.3194449653582185
s(S'%%%%%%%\n%     %\n%     %\n%     %\n%   G %\n%.  p %\n%%%%%%%'
p1569
g10
tp1570
F-25.05
s(S'%%%%%%%\n%     %\n%  p  %\n%    G%\n%     %\n%.    %\n%%%%%%%'
p1571
g13
tp1572
F-0.3467848628489192
s(S'%%%%%%%\n%     %\n%     %\n%     %\n% p  G%\n%.    %\n%%%%%%%'
p1573
g2
tp1574
F0.0
s(S'%%%%%%%\n%     %\n%   G %\n%     %\n%     %\n%.  p %\n%%%%%%%'
p1575
g13
tp1576
F23.25136257873306
s(S'%%%%%%%\n%   p %\n%     %\n%  G  %\n%     %\n%.    %\n%%%%%%%'
p1577
g5
tp1578
F-1.146068784291612
s(S'%%%%%%%\n%     %\n%G  p %\n%     %\n%     %\n%.    %\n%%%%%%%'
p1579
g13
tp1580
F-0.7285788657008501
s(S'%%%%%%%\n%   G %\n%     %\n%     %\n%   p %\n%.    %\n%%%%%%%'
p1581
g10
tp1582
F-0.42560047656790784
s(S'%%%%%%%\n%     %\n%     %\n% p   %\n%   G %\n%.    %\n%%%%%%%'
p1583
g5
tp1584
F86.28773315999796
s(S'%%%%%%%\n%    G%\n%     %\n%     %\n%     %\n%.p   %\n%%%%%%%'
p1585
g10
tp1586
F-0.0975
s(S'%%%%%%%\n%   G %\n%     %\n%     %\n%     %\n%. p  %\n%%%%%%%'
p1587
g13
tp1588
F77.15801823972913
s(S'%%%%%%%\n% G   %\n% p   %\n%     %\n%     %\n%.    %\n%%%%%%%'
p1589
g5
tp1590
F0.38944602160358976
s(S'%%%%%%%\n%     %\n%     %\n%   p %\n%     %\n%. G  %\n%%%%%%%'
p1591
g2
tp1592
F-0.5825767319377937
s(S'%%%%%%%\n%    p%\n%     %\n%     %\n%     %\n%.  G %\n%%%%%%%'
p1593
g5
tp1594
F-1.0453125141983868
s(S'%%%%%%%\n%     %\n%   pG%\n%     %\n%     %\n%.    %\n%%%%%%%'
p1595
g13
tp1596
F-0.5094846673795173
s(S'%%%%%%%\n%     %\n%   p %\n%     %\n%     %\n%.G   %\n%%%%%%%'
p1597
g2
tp1598
F-0.8654046816821923
s(S'%%%%%%%\n%     %\n%     %\n%   G %\n%   p %\n%.    %\n%%%%%%%'
p1599
g13
tp1600
F4.8521382737522
s(S'%%%%%%%\n%     %\n%G  p %\n%     %\n%     %\n%.    %\n%%%%%%%'
p1601
g10
tp1602
F-0.8242960580467894
s(S'%%%%%%%\n%     %\n%     %\n%     %\n%p  G %\n%.    %\n%%%%%%%'
p1603
g2
tp1604
F0.0
s(S'%%%%%%%\n%     %\n%    p%\n%     %\n%   G %\n%.    %\n%%%%%%%'
p1605
g10
tp1606
F-1.052033234015901
s(S'%%%%%%%\n%     %\n%     %\n%    G%\n%p    %\n%.    %\n%%%%%%%'
p1607
g2
tp1608
F0.0
s(S'%%%%%%%\n%     %\n%pG   %\n%     %\n%     %\n%.    %\n%%%%%%%'
p1609
g2
tp1610
F-25.05
s(S'%%%%%%%\n%     %\n%    G%\n%  p  %\n%     %\n%.    %\n%%%%%%%'
p1611
g2
tp1612
F-0.2881021938443608
s(S'%%%%%%%\n%     %\n%  p  %\n%     %\n% G   %\n%.    %\n%%%%%%%'
p1613
g10
tp1614
F-0.8603215935796683
s(S'%%%%%%%\n%     %\n%     %\n%  p  %\n%     %\n%.G   %\n%%%%%%%'
p1615
g13
tp1616
F0.2861752338667511
s(S'%%%%%%%\n%     %\n%     %\n%    p%\n%G    %\n%.    %\n%%%%%%%'
p1617
g5
tp1618
F-0.9242034901660471
s(S'%%%%%%%\n%    p%\n%G    %\n%     %\n%     %\n%.    %\n%%%%%%%'
p1619
g13
tp1620
F-1.0484803794033126
s(S'%%%%%%%\n%   G %\n%     %\n%     %\n%     %\n%.   p%\n%%%%%%%'
p1621
g10
tp1622
F-0.6223550531525459
s(S'%%%%%%%\n%  p  %\n%  G  %\n%     %\n%     %\n%.    %\n%%%%%%%'
p1623
g2
tp1624
F-0.9507717458033716
s(S'%%%%%%%\n%     %\n%     %\n%     %\n%   p %\n%.G   %\n%%%%%%%'
p1625
g5
tp1626
F-0.5389299749188576
s(S'%%%%%%%\n%  p  %\n%     %\n%     %\n%     %\n%.  G %\n%%%%%%%'
p1627
g13
tp1628
F-0.725102297548317
s(S'%%%%%%%\n%     %\n%   p %\n%     %\n%  G  %\n%.    %\n%%%%%%%'
p1629
g10
tp1630
F-0.9892434707662587
s(S'%%%%%%%\n%     %\n%  G  %\n%  p  %\n%     %\n%.    %\n%%%%%%%'
p1631
g13
tp1632
F20.98653221871201
s(S'%%%%%%%\n%     %\n%   p %\n%     %\n%     %\n%.G   %\n%%%%%%%'
p1633
g5
tp1634
F-0.8295866920296934
s(S'%%%%%%%\n%p    %\n%     %\n%     %\n%  G  %\n%.    %\n%%%%%%%'
p1635
g5
tp1636
F0.26194786659239255
s(S'%%%%%%%\n%  p  %\n%    G%\n%     %\n%     %\n%.    %\n%%%%%%%'
p1637
g13
tp1638
F-0.522629058168464
s(S'%%%%%%%\n%    G%\n%     %\n%     %\n%     %\n%.  p %\n%%%%%%%'
p1639
g10
tp1640
F-0.2975014594091399
s(S'%%%%%%%\n%     %\n%  p  %\n%     %\n%   G %\n%.    %\n%%%%%%%'
p1641
g10
tp1642
F-0.754884032351573
s(S'%%%%%%%\n%     %\n% Gp  %\n%     %\n%     %\n%.    %\n%%%%%%%'
p1643
g13
tp1644
F-25.05
s(S'%%%%%%%\n%G    %\n%     %\n%     %\n%     %\n%.  p %\n%%%%%%%'
p1645
g10
tp1646
F-0.1962607333901508
s(S'%%%%%%%\n%     %\n%     %\n%   p %\n%     %\n%.   G%\n%%%%%%%'
p1647
g5
tp1648
F-0.11850344555589362
s(S'%%%%%%%\n%     %\n%     %\n%    G%\n%  p  %\n%.    %\n%%%%%%%'
p1649
g5
tp1650
F-0.05
s(S'%%%%%%%\n%     %\n%     %\n%p  G %\n%     %\n%.    %\n%%%%%%%'
p1651
g2
tp1652
F-0.05
s(S'%%%%%%%\n%     %\n%  p  %\n%     %\n% G   %\n%.    %\n%%%%%%%'
p1653
g5
tp1654
F-0.10937365822391046
s(S'%%%%%%%\n% p   %\n%     %\n%     %\n%     %\n%.   G%\n%%%%%%%'
p1655
g2
tp1656
F-0.5558347613280653
s(S'%%%%%%%\n%     %\n%     %\n%  p  %\n%     %\n%.G   %\n%%%%%%%'
p1657
g5
tp1658
F-0.27105724265625
s(S'%%%%%%%\n% G   %\n%     %\n%     %\n% p   %\n%.    %\n%%%%%%%'
p1659
g5
tp1660
F173.39338933491362
s(S'%%%%%%%\n%     %\n%Gp   %\n%     %\n%     %\n%.    %\n%%%%%%%'
p1661
g2
tp1662
F-0.35538177840015156
s(S'%%%%%%%\n%  p  %\n%     %\n%     %\n%     %\n%.  G %\n%%%%%%%'
p1663
g5
tp1664
F-0.6491259478673386
s(S'%%%%%%%\n%     %\n% G   %\n%     %\n%p    %\n%.    %\n%%%%%%%'
p1665
g2
tp1666
F0.0
s(S'%%%%%%%\n%     %\n%     %\n%     %\n%   pG%\n%.    %\n%%%%%%%'
p1667
g2
tp1668
F-25.05
s(S'%%%%%%%\n%p    %\n%  G  %\n%     %\n%     %\n%.    %\n%%%%%%%'
p1669
g5
tp1670
F-0.3720815229435025
s(S'%%%%%%%\n%     %\n%    G%\n%     %\n%     %\n%.   p%\n%%%%%%%'
p1671
g13
tp1672
F-0.47416385360368535
s(S'%%%%%%%\n%     %\n% p   %\n%     %\n%     %\n%.G   %\n%%%%%%%'
p1673
g2
tp1674
F-0.4194992158737453
s(S'%%%%%%%\n%     %\n%   G %\n%     %\n%     %\n%.p   %\n%%%%%%%'
p1675
g10
tp1676
F0.0
s(S'%%%%%%%\n%     %\n% G   %\n%     %\n%    p%\n%.    %\n%%%%%%%'
p1677
g13
tp1678
F-0.5402902875845352
s(S'%%%%%%%\n%     %\n%    p%\n%G    %\n%     %\n%.    %\n%%%%%%%'
p1679
g10
tp1680
F-2.1054146575002144
s(S'%%%%%%%\n%     %\n%     %\n%    G%\n%    p%\n%.    %\n%%%%%%%'
p1681
g13
tp1682
F-0.6653744847454613
s(S'%%%%%%%\n%     %\n%     %\n%     %\n%  p  %\n%.   G%\n%%%%%%%'
p1683
g10
tp1684
F-0.15011756269851434
s(S'%%%%%%%\n% G   %\n%   p %\n%     %\n%     %\n%.    %\n%%%%%%%'
p1685
g10
tp1686
F-1.389804223630823
s(S'%%%%%%%\n%     %\n% p   %\n%     %\n%     %\n%.  G %\n%%%%%%%'
p1687
g2
tp1688
F-0.21774174216879222
s(S'%%%%%%%\n%     %\n%     %\n%     %\n% G   %\n%.p   %\n%%%%%%%'
p1689
g13
tp1690
F330.84999999999997
s(S'%%%%%%%\n% p   %\n%     %\n%     %\n%   G %\n%.    %\n%%%%%%%'
p1691
g13
tp1692
F-0.5215231144273309
s(S'%%%%%%%\n%     %\n%Gp   %\n%     %\n%     %\n%.    %\n%%%%%%%'
p1693
g5
tp1694
F-0.0975
s(S'%%%%%%%\n%     %\n%  G  %\n%     %\n%     %\n%. p  %\n%%%%%%%'
p1695
g2
tp1696
F0.0
s(S'%%%%%%%\n%     %\n%   G %\n%   p %\n%     %\n%.    %\n%%%%%%%'
p1697
g13
tp1698
F1.3336429564948258
s(S'%%%%%%%\n% G   %\n%     %\n%     %\n%   p %\n%.    %\n%%%%%%%'
p1699
g5
tp1700
F-0.192013125
s(S'%%%%%%%\n%     %\n%p    %\n%G    %\n%     %\n%.    %\n%%%%%%%'
p1701
g5
tp1702
F-25.05
s(S'%%%%%%%\n%     %\n%     %\n%     %\n%  p  %\n%. G  %\n%%%%%%%'
p1703
g2
tp1704
F0.0
s(S'%%%%%%%\n%    p%\n%     %\n%     %\n%     %\n%.G   %\n%%%%%%%'
p1705
g5
tp1706
F-0.9661671502807677
s(S'%%%%%%%\n%     %\n%  p  %\n%  G  %\n%     %\n%.    %\n%%%%%%%'
p1707
g10
tp1708
F-0.9679804479539121
s(S'%%%%%%%\n%pG   %\n%     %\n%     %\n%     %\n%.    %\n%%%%%%%'
p1709
g2
tp1710
F-25.05
s(S'%%%%%%%\n%    p%\n%    .%\n% G   %\n%     %\n%.    %\n%%%%%%%'
p1711
g5
tp1712
F0.45
s(S'%%%%%%%\n%     %\n% p   %\n%     %\n%    G%\n%.    %\n%%%%%%%'
p1713
g10
tp1714
F-0.5691535779501657
s(S'%%%%%%%\n%  G  %\n%     %\n%     %\n%p    %\n%.    %\n%%%%%%%'
p1715
g2
tp1716
F0.0
s(S'%%%%%%%\n%     %\n%     %\n%     %\n%  p  %\n%.   G%\n%%%%%%%'
p1717
g5
tp1718
F-0.1975909934570542
s(S'%%%%%%%\n%  G  %\n%     %\n% p   %\n%     %\n%.    %\n%%%%%%%'
p1719
g2
tp1720
F-0.05
s(S'%%%%%%%\n%     %\n%    p%\n%     %\n% G   %\n%.    %\n%%%%%%%'
p1721
g10
tp1722
F-1.5479508034414022
s(S'%%%%%%%\n%     %\n%  p  %\n%     %\n%   G %\n%.    %\n%%%%%%%'
p1723
g13
tp1724
F-0.5108028375954037
s(S'%%%%%%%\n%     %\n%G    %\n%     %\n%     %\n%. p  %\n%%%%%%%'
p1725
g13
tp1726
F110.97196870294188
s(S'%%%%%%%\n%     %\n%     %\n%     %\n%     %\n%.pG  %\n%%%%%%%'
p1727
g13
tp1728
F508.9999999999999
s(S'%%%%%%%\n% G   %\n%     %\n%  p  %\n%     %\n%.    %\n%%%%%%%'
p1729
g10
tp1730
F-0.4052505522259938
s(S'%%%%%%%\n%     %\n%  G  %\n%     %\n%     %\n%.   p%\n%%%%%%%'
p1731
g10
tp1732
F-0.635062737386415
s(S'%%%%%%%\n% p   %\n%     %\n%G    %\n%     %\n%.    %\n%%%%%%%'
p1733
g13
tp1734
F-0.5053131492572759
s(S'%%%%%%%\n%     %\n%     %\n%     %\n% p   %\n%.  G %\n%%%%%%%'
p1735
g5
tp1736
F-0.05
s(S'%%%%%%%\n%   p %\n%     %\n%     %\n%     %\n%.   G%\n%%%%%%%'
p1737
g13
tp1738
F-0.48709126313862594
s(S'%%%%%%%\n%     %\n%     %\n% pG  %\n%     %\n%.    %\n%%%%%%%'
p1739
g10
tp1740
F-0.144875
s(S'%%%%%%%\n% G   %\n%     %\n%     %\n%   p %\n%.    %\n%%%%%%%'
p1741
g2
tp1742
F-0.32100253935965234
s(S'%%%%%%%\n%     %\n% p   %\n%     %\n%    G%\n%.    %\n%%%%%%%'
p1743
g2
tp1744
F-0.44651726975832184
s(S'%%%%%%%\n%     %\n%     %\n% p   %\n%     %\n%. G  %\n%%%%%%%'
p1745
g10
tp1746
F-0.29449108299478144
s(S'%%%%%%%\n%   p %\n%     %\n%     %\n% G   %\n%.    %\n%%%%%%%'
p1747
g13
tp1748
F-1.2262127810870591
s(S'%%%%%%%\n%     %\n%     %\n%   pG%\n%     %\n%.    %\n%%%%%%%'
p1749
g5
tp1750
F-0.5198738795968355
s(S'%%%%%%%\n%     %\n%    p%\n%     %\n%     %\n%.   G%\n%%%%%%%'
p1751
g5
tp1752
F-0.48357440014095443
s(S'%%%%%%%\n%     %\n%p  G %\n%     %\n%     %\n%.    %\n%%%%%%%'
p1753
g2
tp1754
F-0.18774375
s(S'%%%%%%%\n%     %\n%     %\n%   G %\n%     %\n%. p  %\n%%%%%%%'
p1755
g10
tp1756
F-0.09214952418574218
s(S'%%%%%%%\n%     %\n%     %\n%     %\n%G    %\n%. p  %\n%%%%%%%'
p1757
g13
tp1758
F65.41389200187872
s(S'%%%%%%%\n%   p %\n%     %\n%    G%\n%     %\n%.    %\n%%%%%%%'
p1759
g5
tp1760
F-0.9140800822113736
s(S'%%%%%%%\n%     %\n%  G  %\n%  p  %\n%     %\n%.    %\n%%%%%%%'
p1761
g2
tp1762
F-0.42221137433794026
s(S'%%%%%%%\n%     %\n%  Gp.%\n%     %\n%     %\n%.    %\n%%%%%%%'
p1763
g13
tp1764
F-25.05
s(S'%%%%%%%\n%     %\n%    p%\n%    G%\n%     %\n%.    %\n%%%%%%%'
p1765
g10
tp1766
F-1.0060081739783264
s(S'%%%%%%%\n%G    %\n%     %\n%     %\n%  p  %\n%.    %\n%%%%%%%'
p1767
g5
tp1768
F0.86818790625
s(S'%%%%%%%\n%     %\n%     %\n%     %\n%p    %\n%G    %\n%%%%%%%'
p1769
g10
tp1770
F0.0
s(S'%%%%%%%\n%G    %\n%     %\n%     %\n%     %\n%.p   %\n%%%%%%%'
p1771
g2
tp1772
F0.0
s(S'%%%%%%%\n%     %\n%     %\n%     %\n%    G%\n%.   p%\n%%%%%%%'
p1773
g10
tp1774
F-25.05
s(S'%%%%%%%\n%     %\n%  pG %\n%     %\n%     %\n%.    %\n%%%%%%%'
p1775
g2
tp1776
F-25.05
s(S'%%%%%%%\n%     %\n%     %\n%  G  %\n%    p%\n%.    %\n%%%%%%%'
p1777
g13
tp1778
F-0.44645558879440583
s(S'%%%%%%%\n%  p  %\n%     %\n%     %\n%  G  %\n%.    %\n%%%%%%%'
p1779
g13
tp1780
F-0.8942757502489411
s(S'%%%%%%%\n% G   %\n%     %\n%p    %\n%     %\n%.    %\n%%%%%%%'
p1781
g10
tp1782
F0.0
s(S'%%%%%%%\n%     %\n%     %\n%  G  %\n%     %\n%.  p %\n%%%%%%%'
p1783
g2
tp1784
F-0.34860784062312544
s(S'%%%%%%%\n%     %\n%   p %\n%   G %\n%     %\n%.    %\n%%%%%%%'
p1785
g5
tp1786
F-25.05
s(S'%%%%%%%\n%     %\n%     %\n%     %\n%     %\n%.p  G%\n%%%%%%%'
p1787
g2
tp1788
F-0.18988125
s(S'%%%%%%%\n%     %\n%     %\n%   p %\n%   G %\n%.    %\n%%%%%%%'
p1789
g5
tp1790
F-25.05
s(S'%%%%%%%\n%     %\n%     %\n%G    %\n%  p  %\n%.    %\n%%%%%%%'
p1791
g2
tp1792
F-0.2099941557507419
s(S'%%%%%%%\n%     %\n% pG  %\n%     %\n%     %\n%.    %\n%%%%%%%'
p1793
g10
tp1794
F-0.5027515017908127
s(S'%%%%%%%\n%     %\n%     %\n%G  p %\n%     %\n%.    %\n%%%%%%%'
p1795
g13
tp1796
F0.12468897537340287
s(S'%%%%%%%\n%     %\n%  Gp.%\n%     %\n%     %\n%.    %\n%%%%%%%'
p1797
g5
tp1798
F0.0
s(S'%%%%%%%\n%     %\n%  p  %\n%     %\n%     %\n%G    %\n%%%%%%%'
p1799
g10
tp1800
F-0.5590515123113582
s(S'%%%%%%%\n%  G  %\n%     %\n%     %\n%     %\n%.  p %\n%%%%%%%'
p1801
g10
tp1802
F-0.2306065625
s(S'%%%%%%%\n%    G%\n%     %\n%   p %\n%     %\n%.    %\n%%%%%%%'
p1803
g13
tp1804
F-0.28649390681569453
s(S'%%%%%%%\n%     %\n%     %\n%  G  %\n%p    %\n%.    %\n%%%%%%%'
p1805
g5
tp1806
F218.87000000000003
s(S'%%%%%%%\n%     %\n%     %\n%G    %\n%p    %\n%.    %\n%%%%%%%'
p1807
g2
tp1808
F0.0
s(S'%%%%%%%\n%   p %\n%   G %\n%     %\n%     %\n%.    %\n%%%%%%%'
p1809
g2
tp1810
F-1.5452726837225788
s(S'%%%%%%%\n%     %\n%     %\n%    p%\n%     %\n%.G   %\n%%%%%%%'
p1811
g10
tp1812
F-0.7957849278696995
s(S'%%%%%%%\n%     %\n%p    %\n%G    %\n%     %\n%.    %\n%%%%%%%'
p1813
g10
tp1814
F-0.20981764583003906
s(S'%%%%%%%\n%     %\n%     %\n% G   %\n%     %\n%. p  %\n%%%%%%%'
p1815
g10
tp1816
F-0.18988125
s(S'%%%%%%%\n%     %\n%    G%\n%     %\n%     %\n%. p  %\n%%%%%%%'
p1817
g2
tp1818
F-0.19820653124999998
s(S'%%%%%%%\n%     %\n%     %\n%     %\n%pG   %\n%.    %\n%%%%%%%'
p1819
g5
tp1820
F1068.9000000000008
s(S'%%%%%%%\n%     %\n%     %\n%p    %\n%G    %\n%.    %\n%%%%%%%'
p1821
g10
tp1822
F0.8924729082777678
s(S'%%%%%%%\n%     %\n%     %\n%     %\n% Gp  %\n%.    %\n%%%%%%%'
p1823
g13
tp1824
F-25.05
s(S'%%%%%%%\n%   G %\n%     %\n%     %\n% p   %\n%.    %\n%%%%%%%'
p1825
g10
tp1826
F-0.08387975718749999
s(S'%%%%%%%\n%     %\n%G    %\n%  p  %\n%     %\n%.    %\n%%%%%%%'
p1827
g5
tp1828
F1.4946940848922634
s(S'%%%%%%%\n%    G%\n%     %\n%     %\n%    p%\n%.    %\n%%%%%%%'
p1829
g10
tp1830
F-0.4618359591558487
s(S'%%%%%%%\n%   G %\n%     %\n%     %\n% p   %\n%.    %\n%%%%%%%'
p1831
g2
tp1832
F-0.0975
s(S'%%%%%%%\n%    p%\n%    G%\n%     %\n%     %\n%.    %\n%%%%%%%'
p1833
g5
tp1834
F-25.05
s(S'%%%%%%%\n%     %\n%     %\n%G    %\n%     %\n%.  p %\n%%%%%%%'
p1835
g2
tp1836
F-0.46190019252663833
s(S'%%%%%%%\n%     %\n%  p  %\n%     %\n% G   %\n%.    %\n%%%%%%%'
p1837
g13
tp1838
F-0.5240630862795195
s(S'%%%%%%%\n%     %\n%     %\n%     %\n%     %\n%.  pG%\n%%%%%%%'
p1839
g13
tp1840
F8.361647191862502
s(S'%%%%%%%\n% G   %\n%     %\n%  p  %\n%     %\n%.    %\n%%%%%%%'
p1841
g13
tp1842
F0.39181419779561216
s(S'%%%%%%%\n%     %\n%p    %\n%     %\n%     %\n%G    %\n%%%%%%%'
p1843
g2
tp1844
F-0.20098483873562856
s(S'%%%%%%%\n%     %\n%     %\n%     %\n% Gp  %\n%.    %\n%%%%%%%'
p1845
g10
tp1846
F-0.15145932828125
s(S'%%%%%%%\n%     %\n%   p %\n%     %\n%     %\n%.G   %\n%%%%%%%'
p1847
g13
tp1848
F-0.8294611801546024
s(S'%%%%%%%\n%     %\n% G   %\n%   p %\n%     %\n%.    %\n%%%%%%%'
p1849
g10
tp1850
F-0.8014216437714374
s(S'%%%%%%%\n%     %\n%p  G %\n%     %\n%     %\n%.    %\n%%%%%%%'
p1851
g5
tp1852
F17.53811816155029
s(S'%%%%%%%\n%     %\n%    p%\n%     %\n%     %\n%. G  %\n%%%%%%%'
p1853
g13
tp1854
F-0.9433603860779968
s(S'%%%%%%%\n%     %\n%     %\n%   p %\n%     %\n%G    %\n%%%%%%%'
p1855
g13
tp1856
F-0.416438781663751
s(S'%%%%%%%\n%     %\n%     %\n%     %\n%  G  %\n%.   p%\n%%%%%%%'
p1857
g10
tp1858
F-0.7830768413750733
s(S'%%%%%%%\n%G  p %\n%     %\n%     %\n%     %\n%.    %\n%%%%%%%'
p1859
g5
tp1860
F-0.8392873357952072
s(S'%%%%%%%\n%     %\n%p    %\n%     %\n%     %\n%. G  %\n%%%%%%%'
p1861
g2
tp1862
F-0.23272856562500002
s(S'%%%%%%%\n%     %\n%     %\n%     %\n% pG  %\n%.    %\n%%%%%%%'
p1863
g10
tp1864
F-0.144875
s(S'%%%%%%%\n%     %\n% G   %\n% p   %\n%     %\n%.    %\n%%%%%%%'
p1865
g2
tp1866
F-0.1497926051278918
s(S'%%%%%%%\n% Gp  %\n%     %\n%     %\n%     %\n%.    %\n%%%%%%%'
p1867
g2
tp1868
F-0.6870392252010951
s(S'%%%%%%%\n%     %\n%     %\n%     %\n%  pG %\n%.    %\n%%%%%%%'
p1869
g2
tp1870
F-25.05
s(S'%%%%%%%\n%     %\n%    p%\n%     %\n%     %\n%. G  %\n%%%%%%%'
p1871
g10
tp1872
F-1.0765464091538006
s(S'%%%%%%%\n%     %\n%     %\n%     %\n%  p  %\n%.   G%\n%%%%%%%'
p1873
g13
tp1874
F23.389596538474013
s(S'%%%%%%%\n%     %\n%G    %\n%     %\n%     %\n%.   p%\n%%%%%%%'
p1875
g13
tp1876
F0.9482054134862006
s(S'%%%%%%%\n%     %\n%    G%\n%     %\n%   p %\n%.    %\n%%%%%%%'
p1877
g2
tp1878
F-0.5090318836822044
s(S'%%%%%%%\n%     %\n% p   %\n%   G %\n%     %\n%.    %\n%%%%%%%'
p1879
g5
tp1880
F0.20326527914074
s(S'%%%%%%%\n%     %\n%p  G %\n%     %\n%     %\n%.    %\n%%%%%%%'
p1881
g10
tp1882
F-0.1572376460234375
s(S'%%%%%%%\n%     %\n%     %\n%     %\n%  p  %\n%G    %\n%%%%%%%'
p1883
g10
tp1884
F-0.05986131079220441
s(S'%%%%%%%\n%     %\n%     %\n%     %\n%  pG %\n%.    %\n%%%%%%%'
p1885
g5
tp1886
F-0.3037626296803255
s(S'%%%%%%%\n%G  p %\n%    .%\n%     %\n%     %\n%.    %\n%%%%%%%'
p1887
g2
tp1888
F-0.07725
s(S'%%%%%%%\n%     %\n%     %\n%   p %\n%     %\n%G    %\n%%%%%%%'
p1889
g10
tp1890
F-0.7862349546843814
s(S'%%%%%%%\n%     %\n%     %\n%p    %\n%     %\n%.  G %\n%%%%%%%'
p1891
g5
tp1892
F67.30815875976151
s(S'%%%%%%%\n%    p%\n%     %\n%     %\n%  G  %\n%.    %\n%%%%%%%'
p1893
g5
tp1894
F-1.2524222807816927
s(S'%%%%%%%\n%p    %\n%     %\n% G   %\n%     %\n%.    %\n%%%%%%%'
p1895
g2
tp1896
F-0.3347222011437256
s(S'%%%%%%%\n%  G  %\n%p    %\n%     %\n%     %\n%.    %\n%%%%%%%'
p1897
g5
tp1898
F8.937080659280713
s(S'%%%%%%%\n%Gp   %\n%     %\n%     %\n%     %\n%.    %\n%%%%%%%'
p1899
g2
tp1900
F-0.15738140295312503
s(S'%%%%%%%\n%     %\n%   pG%\n%     %\n%     %\n%.    %\n%%%%%%%'
p1901
g2
tp1902
F-25.05
s(S'%%%%%%%\n%     %\n% G   %\n%   p %\n%     %\n%.    %\n%%%%%%%'
p1903
g13
tp1904
F3.17669190106162
s(S'%%%%%%%\n%   p %\n%     %\n%     %\n%     %\n%G    %\n%%%%%%%'
p1905
g2
tp1906
F-0.7730920409787412
s(S'%%%%%%%\n%     %\n%     %\n%     %\n%  G  %\n%.   p%\n%%%%%%%'
p1907
g13
tp1908
F1.2728990903534396
s(S'%%%%%%%\n% Gp  %\n%     %\n%     %\n%     %\n%.    %\n%%%%%%%'
p1909
g13
tp1910
F-25.05
s(S'%%%%%%%\n% p   %\n% G   %\n%     %\n%     %\n%.    %\n%%%%%%%'
p1911
g5
tp1912
F-25.05
s(S'%%%%%%%\n%     %\n%     %\n%     %\n%     %\n%G  p %\n%%%%%%%'
p1913
g13
tp1914
F-0.30166270390625005
s(S'%%%%%%%\n%     %\n%     %\n%     %\n%     %\n%.pG  %\n%%%%%%%'
p1915
g2
tp1916
F-25.05
s(S'%%%%%%%\n%     %\n%     %\n%   G %\n%     %\n%.   p%\n%%%%%%%'
p1917
g10
tp1918
F-1.0272747508334639
s(S'%%%%%%%\n%     %\n%     %\n%   pG%\n%     %\n%.    %\n%%%%%%%'
p1919
g10
tp1920
F-0.4245715534287725
s(S'%%%%%%%\n%   p %\n%     %\n%     %\n%     %\n%.   G%\n%%%%%%%'
p1921
g5
tp1922
F-0.5015676957706221
s(S'%%%%%%%\n%  p  %\n%     %\n%   G %\n%     %\n%.    %\n%%%%%%%'
p1923
g13
tp1924
F-0.6957640634349013
s(S'%%%%%%%\n%     %\n% p   %\n% G   %\n%     %\n%.    %\n%%%%%%%'
p1925
g5
tp1926
F-25.05
s(S'%%%%%%%\n%     %\n%     %\n%   G %\n% p   %\n%.    %\n%%%%%%%'
p1927
g2
tp1928
F-0.2304996875
s(S'%%%%%%%\n%Gp   %\n%     %\n%     %\n%     %\n%.    %\n%%%%%%%'
p1929
g5
tp1930
F-0.38659637050314144
s(S'%%%%%%%\n%G    %\n%     %\n%     %\n%p    %\n%.    %\n%%%%%%%'
p1931
g2
tp1932
F-0.0975
s(S'%%%%%%%\n%    p%\n%     %\n%     %\n%G    %\n%.    %\n%%%%%%%'
p1933
g13
tp1934
F-1.3333322003608292
s(S'%%%%%%%\n%     %\n% p   %\n% G   %\n%     %\n%.    %\n%%%%%%%'
p1935
g13
tp1936
F-0.0169518312096568
s(S'%%%%%%%\n%     %\n% p   %\n%     %\n%G    %\n%.    %\n%%%%%%%'
p1937
g13
tp1938
F0.3098412640685082
s(S'%%%%%%%\n%p    %\n%    G%\n%     %\n%     %\n%.    %\n%%%%%%%'
p1939
g2
tp1940
F-0.37552793946291413
s(S'%%%%%%%\n%     %\n%p    %\n%     %\n% G   %\n%.    %\n%%%%%%%'
p1941
g5
tp1942
F14.056046316035282
s(S'%%%%%%%\n%     %\n% p   %\n%     %\n%G    %\n%.    %\n%%%%%%%'
p1943
g10
tp1944
F-0.40104511475270965
s(S'%%%%%%%\n%     %\n%pG   %\n%     %\n%     %\n%.    %\n%%%%%%%'
p1945
g10
tp1946
F-0.24895743043906254
s(S'%%%%%%%\n%     %\n% p   %\n%     %\n%     %\n%.G   %\n%%%%%%%'
p1947
g13
tp1948
F0.02527725540307052
s(S'%%%%%%%\n%     %\n%     %\n%  p  %\n%    G%\n%.    %\n%%%%%%%'
p1949
g13
tp1950
F5.69415044070172
s(S'%%%%%%%\n% G  p%\n%     %\n%     %\n%     %\n%.    %\n%%%%%%%'
p1951
g5
tp1952
F-1.914642719423484
s(S'%%%%%%%\n%     %\n%     %\n%  p  %\n%G    %\n%.    %\n%%%%%%%'
p1953
g5
tp1954
F-0.1204083719596358
s(S'%%%%%%%\n%    G%\n%     %\n% p   %\n%     %\n%.    %\n%%%%%%%'
p1955
g10
tp1956
F-0.23456628124999998
s(S'%%%%%%%\n%     %\n%  G  %\n%p    %\n%     %\n%.    %\n%%%%%%%'
p1957
g10
tp1958
F-0.0975
s(S'%%%%%%%\n%    G%\n%     %\n%     %\n%    p%\n%.    %\n%%%%%%%'
p1959
g13
tp1960
F-0.6229176664050498
s(S'%%%%%%%\n%     %\n%   G %\n% p   %\n%     %\n%.    %\n%%%%%%%'
p1961
g5
tp1962
F1.080171287187302
s(S'%%%%%%%\n%    G%\n%    p%\n%     %\n%     %\n%.    %\n%%%%%%%'
p1963
g10
tp1964
F-25.05
s(S'%%%%%%%\n%  G  %\n%     %\n%     %\n%     %\n%.p   %\n%%%%%%%'
p1965
g10
tp1966
F0.0
s(S'%%%%%%%\n%  p  %\n%     %\n% G   %\n%     %\n%.    %\n%%%%%%%'
p1967
g2
tp1968
F-0.8470006459941961
s(S'%%%%%%%\n%G  p %\n%     %\n%     %\n%     %\n%.    %\n%%%%%%%'
p1969
g2
tp1970
F-0.876598300697087
s(S'%%%%%%%\n%     %\n%     %\n%    p%\n%    G%\n%.    %\n%%%%%%%'
p1971
g10
tp1972
F-0.6005358729601075
s(S'%%%%%%%\n%  G  %\n%p    %\n%     %\n%     %\n%.    %\n%%%%%%%'
p1973
g10
tp1974
F-0.3141379903829041
s(S'%%%%%%%\n%     %\n%  G  %\n%  p  %\n%     %\n%.    %\n%%%%%%%'
p1975
g5
tp1976
F-0.3116432188285374
s(S'%%%%%%%\n%   p %\n% G   %\n%     %\n%     %\n%.    %\n%%%%%%%'
p1977
g2
tp1978
F-1.5971656617498868
s(S'%%%%%%%\n%     %\n%     %\n%     %\n%pG   %\n%.    %\n%%%%%%%'
p1979
g10
tp1980
F-0.0975
s(S'%%%%%%%\n%     %\n%     %\n%     %\n%     %\n%.  pG%\n%%%%%%%'
p1981
g2
tp1982
F-25.05
s(S'%%%%%%%\n%     %\n%     %\n%     %\n%     %\n%.  Gp%\n%%%%%%%'
p1983
g10
tp1984
F-0.900375782910207
s(S'%%%%%%%\n%     %\n%     %\n%G    %\n%     %\n%.p   %\n%%%%%%%'
p1985
g2
tp1986
F0.0
s(S'%%%%%%%\n%     %\n%     %\n%  p  %\n%  G  %\n%.    %\n%%%%%%%'
p1987
g10
tp1988
F-0.4560856867225585
s.